	.text
	.syntax unified
	.eabi_attribute	67, "2.09"	@ Tag_conformance
	.cpu	cortex-a8
	.eabi_attribute	6, 10	@ Tag_CPU_arch
	.eabi_attribute	7, 65	@ Tag_CPU_arch_profile
	.eabi_attribute	8, 1	@ Tag_ARM_ISA_use
	.eabi_attribute	9, 2	@ Tag_THUMB_ISA_use
	.fpu	neon
	.eabi_attribute	17, 1	@ Tag_ABI_PCS_GOT_use
	.eabi_attribute	20, 2	@ Tag_ABI_FP_denormal
	.eabi_attribute	23, 1	@ Tag_ABI_FP_number_model
	.eabi_attribute	34, 1	@ Tag_CPU_unaligned_access
	.eabi_attribute	24, 1	@ Tag_ABI_align_needed
	.eabi_attribute	25, 1	@ Tag_ABI_align_preserved
	.eabi_attribute	28, 1	@ Tag_ABI_VFP_args
	.eabi_attribute	38, 1	@ Tag_ABI_FP_16bit_format
	.eabi_attribute	18, 4	@ Tag_ABI_PCS_wchar_t
	.eabi_attribute	26, 2	@ Tag_ABI_enum_size
	.eabi_attribute	14, 0	@ Tag_ABI_PCS_R9_use
	.eabi_attribute	68, 1	@ Tag_Virtualization_use
	.file	"/root/Bela/projects/Physical_model/build/filters.bc"
	.file	1 "/usr/bin/../lib/gcc/arm-linux-gnueabihf/6.3.0/../../../../include/arm-linux-gnueabihf/c++/6.3.0/bits" "c++config.h"
	.file	2 "/usr/bin/../lib/gcc/arm-linux-gnueabihf/6.3.0/../../../../include/c++/6.3.0/bits" "cpp_type_traits.h"
	.file	3 "/usr/bin/../lib/gcc/arm-linux-gnueabihf/6.3.0/../../../../include/c++/6.3.0/bits" "alloc_traits.h"
	.file	4 "/usr/bin/../lib/gcc/arm-linux-gnueabihf/6.3.0/../../../../include/c++/6.3.0/ext" "new_allocator.h"
	.file	5 "/usr/bin/../lib/gcc/arm-linux-gnueabihf/6.3.0/../../../../include/arm-linux-gnueabihf/c++/6.3.0/bits" "c++allocator.h"
	.file	6 "/usr/bin/../lib/gcc/arm-linux-gnueabihf/6.3.0/../../../../include/c++/6.3.0/bits" "allocator.h"
	.file	7 "/usr/bin/../lib/gcc/arm-linux-gnueabihf/6.3.0/../../../../include/c++/6.3.0/ext" "alloc_traits.h"
	.file	8 "/usr/bin/../lib/gcc/arm-linux-gnueabihf/6.3.0/../../../../include/c++/6.3.0/bits" "stl_vector.h"
	.file	9 "/usr/bin/../lib/gcc/arm-linux-gnueabihf/6.3.0/../../../../include/c++/6.3.0/bits" "stl_iterator.h"
	.file	10 "/usr/bin/../lib/gcc/arm-linux-gnueabihf/6.3.0/../../../../include/c++/6.3.0/bits" "stl_iterator_base_types.h"
	.file	11 "/usr/bin/../lib/gcc/arm-linux-gnueabihf/6.3.0/../../../../include/c++/6.3.0" "type_traits"
	.file	12 "/usr/bin/../lib/gcc/arm-linux-gnueabihf/6.3.0/../../../../include/c++/6.3.0/debug" "debug.h"
	.file	13 "/usr/bin/../lib/gcc/arm-linux-gnueabihf/6.3.0/../../../../include/c++/6.3.0/bits" "exception_ptr.h"
	.file	14 "/usr/include/arm-linux-gnueabihf/bits" "math-finite.h"
	.file	15 "/usr/include/arm-linux-gnueabihf/bits" "mathcalls.h"
	.file	16 "/usr/include/arm-linux-gnueabihf/bits" "mathdef.h"
	.globl	_ZN7filtersC2Ev
	.p2align	2
	.type	_ZN7filtersC2Ev,%function
_ZN7filtersC2Ev:                        @ @_ZN7filtersC2Ev
.Lfunc_begin0:
	.file	17 "/root/Bela/projects/Physical_model" "filters.cpp"
	.loc	17 9 0                  @ /root/Bela/projects/Physical_model/filters.cpp:9:0
	.fnstart
	.cfi_startproc
@ BB#0:
	.save	{r4, r5, r6, r7, r8, r9, r11, lr}
	push	{r4, r5, r6, r7, r8, r9, r11, lr}
.Ltmp12:
	.cfi_def_cfa_offset 32
.Ltmp13:
	.cfi_offset lr, -4
.Ltmp14:
	.cfi_offset r11, -8
.Ltmp15:
	.cfi_offset r9, -12
.Ltmp16:
	.cfi_offset r8, -16
.Ltmp17:
	.cfi_offset r7, -20
.Ltmp18:
	.cfi_offset r6, -24
.Ltmp19:
	.cfi_offset r5, -28
.Ltmp20:
	.cfi_offset r4, -32
	.setfp	r11, sp, #24
	add	r11, sp, #24
.Ltmp21:
	.cfi_def_cfa r11, 8
	.pad	#8
	sub	sp, sp, #8
	@DEBUG_VALUE: filters:this <- %R0
.Ltmp22:
	.loc	8 87 34 prologue_end    @ /usr/bin/../lib/gcc/arm-linux-gnueabihf/6.3.0/../../../../include/c++/6.3.0/bits/stl_vector.h:87:34
	vmov.i32	q8, #0x0
	mov	r4, r0
.Ltmp23:
	@DEBUG_VALUE: filters:this <- %R4
	add	r0, r4, #32
.Ltmp24:
	.loc	17 7 12                 @ /root/Bela/projects/Physical_model/filters.cpp:7:12
	add	r7, r4, #36
.Ltmp25:
	@DEBUG_VALUE: vector:this <- %R7
	@DEBUG_VALUE: resize:this <- %R7
	@DEBUG_VALUE: size:this <- %R7
	@DEBUG_VALUE: size:this <- %R7
	@DEBUG_VALUE: insert:this <- %R7
	@DEBUG_VALUE: _M_erase_at_end:this <- %R7
	@DEBUG_VALUE: ~vector:this <- %R7
	add	r9, r4, #24
.Ltmp26:
	@DEBUG_VALUE: vector:this <- %R9
	@DEBUG_VALUE: resize:this <- %R9
	@DEBUG_VALUE: size:this <- %R9
	@DEBUG_VALUE: size:this <- %R9
	@DEBUG_VALUE: insert:this <- %R9
	@DEBUG_VALUE: _M_erase_at_end:this <- %R9
	@DEBUG_VALUE: ~vector:this <- %R9
	add	r5, r4, #12
.Ltmp27:
	@DEBUG_VALUE: vector:this <- %R5
	@DEBUG_VALUE: resize:this <- %R5
	@DEBUG_VALUE: size:this <- %R5
	@DEBUG_VALUE: size:this <- %R5
	@DEBUG_VALUE: insert:this <- %R5
	@DEBUG_VALUE: operator[]:this <- %R5
	@DEBUG_VALUE: ~vector:this <- %R5
	.loc	8 87 34                 @ /usr/bin/../lib/gcc/arm-linux-gnueabihf/6.3.0/../../../../include/c++/6.3.0/bits/stl_vector.h:87:34
	vst1.32	{d16, d17}, [r0]
	mov	r0, r4
	mov	r6, #0
	vst1.32	{d16, d17}, [r0]!
	vst1.32	{d16, d17}, [r0]
.Ltmp28:
	.loc	17 10 17                @ /root/Bela/projects/Physical_model/filters.cpp:10:17
	str	r6, [sp, #4]
.Ltmp29:
	.loc	8 1055 2 discriminator 2 @ /usr/bin/../lib/gcc/arm-linux-gnueabihf/6.3.0/../../../../include/c++/6.3.0/bits/stl_vector.h:1055:2
.Ltmp0:
	add	r3, sp, #4
.Ltmp30:
	@DEBUG_VALUE: insert:__x <- %R3
	@DEBUG_VALUE: insert:__n <- 5
	@DEBUG_VALUE: resize:__x <- %R3
	@DEBUG_VALUE: resize:__new_size <- 5
	mov	r0, r5
	mov	r1, #0
	mov	r2, #5
	bl	_ZNSt6vectorIfSaIfEE14_M_fill_insertEN9__gnu_cxx17__normal_iteratorIPfS1_EEjRKf
.Ltmp31:
.Ltmp1:
.Ltmp32:
@ BB#1:                                 @ %_ZNSt6vectorIfSaIfEE6resizeEjRKf.exit
	@DEBUG_VALUE: ~vector:this <- %R5
	@DEBUG_VALUE: operator[]:this <- %R5
	@DEBUG_VALUE: insert:this <- %R5
	@DEBUG_VALUE: size:this <- %R5
	@DEBUG_VALUE: size:this <- %R5
	@DEBUG_VALUE: resize:this <- %R5
	@DEBUG_VALUE: vector:this <- %R5
	@DEBUG_VALUE: ~vector:this <- %R9
	@DEBUG_VALUE: _M_erase_at_end:this <- %R9
	@DEBUG_VALUE: insert:this <- %R9
	@DEBUG_VALUE: size:this <- %R9
	@DEBUG_VALUE: size:this <- %R9
	@DEBUG_VALUE: resize:this <- %R9
	@DEBUG_VALUE: vector:this <- %R9
	@DEBUG_VALUE: ~vector:this <- %R7
	@DEBUG_VALUE: _M_erase_at_end:this <- %R7
	@DEBUG_VALUE: insert:this <- %R7
	@DEBUG_VALUE: size:this <- %R7
	@DEBUG_VALUE: size:this <- %R7
	@DEBUG_VALUE: resize:this <- %R7
	@DEBUG_VALUE: vector:this <- %R7
	@DEBUG_VALUE: filters:this <- %R4
	.loc	8 656 66                @ /usr/bin/../lib/gcc/arm-linux-gnueabihf/6.3.0/../../../../include/c++/6.3.0/bits/stl_vector.h:656:66
	ldm	r4, {r0, r1}
	.loc	8 656 50 is_stmt 0      @ /usr/bin/../lib/gcc/arm-linux-gnueabihf/6.3.0/../../../../include/c++/6.3.0/bits/stl_vector.h:656:50
	sub	r2, r1, r0
.Ltmp33:
	.loc	17 11 17 is_stmt 1      @ /root/Bela/projects/Physical_model/filters.cpp:11:17
	str	r6, [sp, #4]
.Ltmp34:
	@DEBUG_VALUE: resize:__new_size <- 5
	.loc	8 656 50                @ /usr/bin/../lib/gcc/arm-linux-gnueabihf/6.3.0/../../../../include/c++/6.3.0/bits/stl_vector.h:656:50
	asr	r2, r2, #2
.Ltmp35:
	.loc	8 696 6                 @ /usr/bin/../lib/gcc/arm-linux-gnueabihf/6.3.0/../../../../include/c++/6.3.0/bits/stl_vector.h:696:6
	cmp	r2, #4
	bhi	.LBB0_4
.Ltmp36:
@ BB#2:
	@DEBUG_VALUE: ~vector:this <- %R5
	@DEBUG_VALUE: operator[]:this <- %R5
	@DEBUG_VALUE: insert:this <- %R5
	@DEBUG_VALUE: size:this <- %R5
	@DEBUG_VALUE: size:this <- %R5
	@DEBUG_VALUE: resize:this <- %R5
	@DEBUG_VALUE: vector:this <- %R5
	@DEBUG_VALUE: ~vector:this <- %R9
	@DEBUG_VALUE: _M_erase_at_end:this <- %R9
	@DEBUG_VALUE: insert:this <- %R9
	@DEBUG_VALUE: size:this <- %R9
	@DEBUG_VALUE: size:this <- %R9
	@DEBUG_VALUE: resize:this <- %R9
	@DEBUG_VALUE: vector:this <- %R9
	@DEBUG_VALUE: ~vector:this <- %R7
	@DEBUG_VALUE: _M_erase_at_end:this <- %R7
	@DEBUG_VALUE: insert:this <- %R7
	@DEBUG_VALUE: size:this <- %R7
	@DEBUG_VALUE: size:this <- %R7
	@DEBUG_VALUE: resize:this <- %R7
	@DEBUG_VALUE: vector:this <- %R7
	@DEBUG_VALUE: filters:this <- %R4
	.loc	8 1055 2 discriminator 2 @ /usr/bin/../lib/gcc/arm-linux-gnueabihf/6.3.0/../../../../include/c++/6.3.0/bits/stl_vector.h:1055:2
.Ltmp3:
.Ltmp37:
	.loc	8 697 29                @ /usr/bin/../lib/gcc/arm-linux-gnueabihf/6.3.0/../../../../include/c++/6.3.0/bits/stl_vector.h:697:29
	rsb	r2, r2, #5
.Ltmp38:
	@DEBUG_VALUE: insert:__n <- %R2
	add	r3, sp, #4
.Ltmp39:
	@DEBUG_VALUE: insert:__x <- %R3
	.loc	8 1055 2 discriminator 2 @ /usr/bin/../lib/gcc/arm-linux-gnueabihf/6.3.0/../../../../include/c++/6.3.0/bits/stl_vector.h:1055:2
	mov	r0, r4
	bl	_ZNSt6vectorIfSaIfEE14_M_fill_insertEN9__gnu_cxx17__normal_iteratorIPfS1_EEjRKf
.Ltmp40:
.Ltmp4:
.Ltmp41:
@ BB#3:                                 @ %._ZNSt6vectorIfSaIfEE6resizeEjRKf.exit8_crit_edge
	@DEBUG_VALUE: ~vector:this <- %R5
	@DEBUG_VALUE: operator[]:this <- %R5
	@DEBUG_VALUE: insert:this <- %R5
	@DEBUG_VALUE: size:this <- %R5
	@DEBUG_VALUE: size:this <- %R5
	@DEBUG_VALUE: resize:this <- %R5
	@DEBUG_VALUE: vector:this <- %R5
	@DEBUG_VALUE: ~vector:this <- %R9
	@DEBUG_VALUE: _M_erase_at_end:this <- %R9
	@DEBUG_VALUE: insert:this <- %R9
	@DEBUG_VALUE: size:this <- %R9
	@DEBUG_VALUE: size:this <- %R9
	@DEBUG_VALUE: resize:this <- %R9
	@DEBUG_VALUE: vector:this <- %R9
	@DEBUG_VALUE: ~vector:this <- %R7
	@DEBUG_VALUE: _M_erase_at_end:this <- %R7
	@DEBUG_VALUE: insert:this <- %R7
	@DEBUG_VALUE: size:this <- %R7
	@DEBUG_VALUE: size:this <- %R7
	@DEBUG_VALUE: resize:this <- %R7
	@DEBUG_VALUE: vector:this <- %R7
	@DEBUG_VALUE: filters:this <- %R4
	.loc	8 781 32                @ /usr/bin/../lib/gcc/arm-linux-gnueabihf/6.3.0/../../../../include/c++/6.3.0/bits/stl_vector.h:781:32
	ldr	r0, [r4]
	b	.LBB0_5
.Ltmp42:
.LBB0_4:
	@DEBUG_VALUE: ~vector:this <- %R5
	@DEBUG_VALUE: operator[]:this <- %R5
	@DEBUG_VALUE: insert:this <- %R5
	@DEBUG_VALUE: size:this <- %R5
	@DEBUG_VALUE: size:this <- %R5
	@DEBUG_VALUE: resize:this <- %R5
	@DEBUG_VALUE: vector:this <- %R5
	@DEBUG_VALUE: ~vector:this <- %R9
	@DEBUG_VALUE: _M_erase_at_end:this <- %R9
	@DEBUG_VALUE: insert:this <- %R9
	@DEBUG_VALUE: size:this <- %R9
	@DEBUG_VALUE: size:this <- %R9
	@DEBUG_VALUE: resize:this <- %R9
	@DEBUG_VALUE: vector:this <- %R9
	@DEBUG_VALUE: ~vector:this <- %R7
	@DEBUG_VALUE: _M_erase_at_end:this <- %R7
	@DEBUG_VALUE: insert:this <- %R7
	@DEBUG_VALUE: size:this <- %R7
	@DEBUG_VALUE: size:this <- %R7
	@DEBUG_VALUE: resize:this <- %R7
	@DEBUG_VALUE: vector:this <- %R7
	@DEBUG_VALUE: filters:this <- %R4
	.loc	8 698 11                @ /usr/bin/../lib/gcc/arm-linux-gnueabihf/6.3.0/../../../../include/c++/6.3.0/bits/stl_vector.h:698:11
	cmp	r2, #5
.Ltmp43:
	.loc	8 699 43                @ /usr/bin/../lib/gcc/arm-linux-gnueabihf/6.3.0/../../../../include/c++/6.3.0/bits/stl_vector.h:699:43
	addne	r1, r0, #20
.Ltmp44:
	@DEBUG_VALUE: _M_erase_at_end:__pos <- %R1
	.loc	8 1437 26               @ /usr/bin/../lib/gcc/arm-linux-gnueabihf/6.3.0/../../../../include/c++/6.3.0/bits/stl_vector.h:1437:26
	strne	r1, [r4, #4]
.Ltmp45:
.LBB0_5:                                @ %_ZNSt6vectorIfSaIfEE6resizeEjRKf.exit8
	@DEBUG_VALUE: ~vector:this <- %R5
	@DEBUG_VALUE: operator[]:this <- %R5
	@DEBUG_VALUE: insert:this <- %R5
	@DEBUG_VALUE: size:this <- %R5
	@DEBUG_VALUE: size:this <- %R5
	@DEBUG_VALUE: resize:this <- %R5
	@DEBUG_VALUE: vector:this <- %R5
	@DEBUG_VALUE: ~vector:this <- %R9
	@DEBUG_VALUE: _M_erase_at_end:this <- %R9
	@DEBUG_VALUE: insert:this <- %R9
	@DEBUG_VALUE: size:this <- %R9
	@DEBUG_VALUE: size:this <- %R9
	@DEBUG_VALUE: resize:this <- %R9
	@DEBUG_VALUE: vector:this <- %R9
	@DEBUG_VALUE: ~vector:this <- %R7
	@DEBUG_VALUE: _M_erase_at_end:this <- %R7
	@DEBUG_VALUE: insert:this <- %R7
	@DEBUG_VALUE: size:this <- %R7
	@DEBUG_VALUE: size:this <- %R7
	@DEBUG_VALUE: resize:this <- %R7
	@DEBUG_VALUE: vector:this <- %R7
	@DEBUG_VALUE: filters:this <- %R4
	@DEBUG_VALUE: operator[]:__n <- 0
	.loc	8 781 32                @ /usr/bin/../lib/gcc/arm-linux-gnueabihf/6.3.0/../../../../include/c++/6.3.0/bits/stl_vector.h:781:32
	ldr	r1, [r4, #12]
.Ltmp46:
	.loc	17 12 9                 @ /root/Bela/projects/Physical_model/filters.cpp:12:9
	mov	r2, #1065353216
.Ltmp47:
	@DEBUG_VALUE: operator[]:__n <- 0
	str	r2, [r1]
	.loc	17 13 9                 @ /root/Bela/projects/Physical_model/filters.cpp:13:9
	str	r2, [r0]
	mov	r0, #0
	.loc	17 14 21                @ /root/Bela/projects/Physical_model/filters.cpp:14:21
	str	r0, [sp, #4]
.Ltmp48:
	@DEBUG_VALUE: resize:__new_size <- 5
	.loc	8 656 66                @ /usr/bin/../lib/gcc/arm-linux-gnueabihf/6.3.0/../../../../include/c++/6.3.0/bits/stl_vector.h:656:66
	ldr	r0, [r4, #24]
	.loc	8 656 40 is_stmt 0      @ /usr/bin/../lib/gcc/arm-linux-gnueabihf/6.3.0/../../../../include/c++/6.3.0/bits/stl_vector.h:656:40
	ldr	r1, [r4, #28]
	.loc	8 656 50                @ /usr/bin/../lib/gcc/arm-linux-gnueabihf/6.3.0/../../../../include/c++/6.3.0/bits/stl_vector.h:656:50
	sub	r2, r1, r0
	asr	r2, r2, #2
.Ltmp49:
	.loc	8 696 6 is_stmt 1       @ /usr/bin/../lib/gcc/arm-linux-gnueabihf/6.3.0/../../../../include/c++/6.3.0/bits/stl_vector.h:696:6
	cmp	r2, #4
	bhi	.LBB0_7
.Ltmp50:
@ BB#6:
	@DEBUG_VALUE: ~vector:this <- %R5
	@DEBUG_VALUE: operator[]:this <- %R5
	@DEBUG_VALUE: insert:this <- %R5
	@DEBUG_VALUE: size:this <- %R5
	@DEBUG_VALUE: size:this <- %R5
	@DEBUG_VALUE: resize:this <- %R5
	@DEBUG_VALUE: vector:this <- %R5
	@DEBUG_VALUE: ~vector:this <- %R9
	@DEBUG_VALUE: _M_erase_at_end:this <- %R9
	@DEBUG_VALUE: insert:this <- %R9
	@DEBUG_VALUE: size:this <- %R9
	@DEBUG_VALUE: size:this <- %R9
	@DEBUG_VALUE: resize:this <- %R9
	@DEBUG_VALUE: vector:this <- %R9
	@DEBUG_VALUE: ~vector:this <- %R7
	@DEBUG_VALUE: _M_erase_at_end:this <- %R7
	@DEBUG_VALUE: insert:this <- %R7
	@DEBUG_VALUE: size:this <- %R7
	@DEBUG_VALUE: size:this <- %R7
	@DEBUG_VALUE: resize:this <- %R7
	@DEBUG_VALUE: vector:this <- %R7
	@DEBUG_VALUE: filters:this <- %R4
	.loc	8 1055 2 discriminator 2 @ /usr/bin/../lib/gcc/arm-linux-gnueabihf/6.3.0/../../../../include/c++/6.3.0/bits/stl_vector.h:1055:2
.Ltmp6:
.Ltmp51:
	.loc	8 697 29                @ /usr/bin/../lib/gcc/arm-linux-gnueabihf/6.3.0/../../../../include/c++/6.3.0/bits/stl_vector.h:697:29
	rsb	r2, r2, #5
.Ltmp52:
	@DEBUG_VALUE: insert:__n <- %R2
	add	r3, sp, #4
.Ltmp53:
	@DEBUG_VALUE: insert:__x <- %R3
	.loc	8 1055 2 discriminator 2 @ /usr/bin/../lib/gcc/arm-linux-gnueabihf/6.3.0/../../../../include/c++/6.3.0/bits/stl_vector.h:1055:2
	mov	r0, r9
	bl	_ZNSt6vectorIfSaIfEE14_M_fill_insertEN9__gnu_cxx17__normal_iteratorIPfS1_EEjRKf
.Ltmp54:
.Ltmp7:
	b	.LBB0_8
.Ltmp55:
.LBB0_7:
	@DEBUG_VALUE: ~vector:this <- %R5
	@DEBUG_VALUE: operator[]:this <- %R5
	@DEBUG_VALUE: insert:this <- %R5
	@DEBUG_VALUE: size:this <- %R5
	@DEBUG_VALUE: size:this <- %R5
	@DEBUG_VALUE: resize:this <- %R5
	@DEBUG_VALUE: vector:this <- %R5
	@DEBUG_VALUE: ~vector:this <- %R9
	@DEBUG_VALUE: _M_erase_at_end:this <- %R9
	@DEBUG_VALUE: insert:this <- %R9
	@DEBUG_VALUE: size:this <- %R9
	@DEBUG_VALUE: size:this <- %R9
	@DEBUG_VALUE: resize:this <- %R9
	@DEBUG_VALUE: vector:this <- %R9
	@DEBUG_VALUE: ~vector:this <- %R7
	@DEBUG_VALUE: _M_erase_at_end:this <- %R7
	@DEBUG_VALUE: insert:this <- %R7
	@DEBUG_VALUE: size:this <- %R7
	@DEBUG_VALUE: size:this <- %R7
	@DEBUG_VALUE: resize:this <- %R7
	@DEBUG_VALUE: vector:this <- %R7
	@DEBUG_VALUE: filters:this <- %R4
	.loc	8 698 11                @ /usr/bin/../lib/gcc/arm-linux-gnueabihf/6.3.0/../../../../include/c++/6.3.0/bits/stl_vector.h:698:11
	cmp	r2, #5
.Ltmp56:
	.loc	8 699 43                @ /usr/bin/../lib/gcc/arm-linux-gnueabihf/6.3.0/../../../../include/c++/6.3.0/bits/stl_vector.h:699:43
	addne	r0, r0, #20
.Ltmp57:
	@DEBUG_VALUE: _M_erase_at_end:__pos <- %R0
	.loc	8 1437 26               @ /usr/bin/../lib/gcc/arm-linux-gnueabihf/6.3.0/../../../../include/c++/6.3.0/bits/stl_vector.h:1437:26
	strne	r0, [r4, #28]
.Ltmp58:
.LBB0_8:                                @ %_ZNSt6vectorIfSaIfEE6resizeEjRKf.exit14
	@DEBUG_VALUE: ~vector:this <- %R5
	@DEBUG_VALUE: operator[]:this <- %R5
	@DEBUG_VALUE: insert:this <- %R5
	@DEBUG_VALUE: size:this <- %R5
	@DEBUG_VALUE: size:this <- %R5
	@DEBUG_VALUE: resize:this <- %R5
	@DEBUG_VALUE: vector:this <- %R5
	@DEBUG_VALUE: ~vector:this <- %R9
	@DEBUG_VALUE: _M_erase_at_end:this <- %R9
	@DEBUG_VALUE: insert:this <- %R9
	@DEBUG_VALUE: size:this <- %R9
	@DEBUG_VALUE: size:this <- %R9
	@DEBUG_VALUE: resize:this <- %R9
	@DEBUG_VALUE: vector:this <- %R9
	@DEBUG_VALUE: ~vector:this <- %R7
	@DEBUG_VALUE: _M_erase_at_end:this <- %R7
	@DEBUG_VALUE: insert:this <- %R7
	@DEBUG_VALUE: size:this <- %R7
	@DEBUG_VALUE: size:this <- %R7
	@DEBUG_VALUE: resize:this <- %R7
	@DEBUG_VALUE: vector:this <- %R7
	@DEBUG_VALUE: filters:this <- %R4
	mov	r0, #0
.Ltmp59:
	@DEBUG_VALUE: resize:__new_size <- 5
	.loc	17 15 22                @ /root/Bela/projects/Physical_model/filters.cpp:15:22
	str	r0, [sp, #4]
.Ltmp60:
	.loc	8 656 66                @ /usr/bin/../lib/gcc/arm-linux-gnueabihf/6.3.0/../../../../include/c++/6.3.0/bits/stl_vector.h:656:66
	ldr	r0, [r4, #36]
	.loc	8 656 40 is_stmt 0      @ /usr/bin/../lib/gcc/arm-linux-gnueabihf/6.3.0/../../../../include/c++/6.3.0/bits/stl_vector.h:656:40
	ldr	r1, [r4, #40]
	.loc	8 656 50                @ /usr/bin/../lib/gcc/arm-linux-gnueabihf/6.3.0/../../../../include/c++/6.3.0/bits/stl_vector.h:656:50
	sub	r2, r1, r0
	asr	r2, r2, #2
.Ltmp61:
	.loc	8 696 6 is_stmt 1       @ /usr/bin/../lib/gcc/arm-linux-gnueabihf/6.3.0/../../../../include/c++/6.3.0/bits/stl_vector.h:696:6
	cmp	r2, #4
	bhi	.LBB0_10
.Ltmp62:
@ BB#9:
	@DEBUG_VALUE: ~vector:this <- %R5
	@DEBUG_VALUE: operator[]:this <- %R5
	@DEBUG_VALUE: insert:this <- %R5
	@DEBUG_VALUE: size:this <- %R5
	@DEBUG_VALUE: size:this <- %R5
	@DEBUG_VALUE: resize:this <- %R5
	@DEBUG_VALUE: vector:this <- %R5
	@DEBUG_VALUE: ~vector:this <- %R9
	@DEBUG_VALUE: _M_erase_at_end:this <- %R9
	@DEBUG_VALUE: insert:this <- %R9
	@DEBUG_VALUE: size:this <- %R9
	@DEBUG_VALUE: size:this <- %R9
	@DEBUG_VALUE: resize:this <- %R9
	@DEBUG_VALUE: vector:this <- %R9
	@DEBUG_VALUE: ~vector:this <- %R7
	@DEBUG_VALUE: _M_erase_at_end:this <- %R7
	@DEBUG_VALUE: insert:this <- %R7
	@DEBUG_VALUE: size:this <- %R7
	@DEBUG_VALUE: size:this <- %R7
	@DEBUG_VALUE: resize:this <- %R7
	@DEBUG_VALUE: vector:this <- %R7
	@DEBUG_VALUE: filters:this <- %R4
	.loc	8 1055 2 discriminator 2 @ /usr/bin/../lib/gcc/arm-linux-gnueabihf/6.3.0/../../../../include/c++/6.3.0/bits/stl_vector.h:1055:2
.Ltmp9:
.Ltmp63:
	.loc	8 697 29                @ /usr/bin/../lib/gcc/arm-linux-gnueabihf/6.3.0/../../../../include/c++/6.3.0/bits/stl_vector.h:697:29
	rsb	r2, r2, #5
.Ltmp64:
	@DEBUG_VALUE: insert:__n <- %R2
	add	r3, sp, #4
.Ltmp65:
	@DEBUG_VALUE: insert:__x <- %R3
	.loc	8 1055 2 discriminator 2 @ /usr/bin/../lib/gcc/arm-linux-gnueabihf/6.3.0/../../../../include/c++/6.3.0/bits/stl_vector.h:1055:2
	mov	r0, r7
	bl	_ZNSt6vectorIfSaIfEE14_M_fill_insertEN9__gnu_cxx17__normal_iteratorIPfS1_EEjRKf
.Ltmp66:
.Ltmp10:
	b	.LBB0_11
.Ltmp67:
.LBB0_10:
	@DEBUG_VALUE: ~vector:this <- %R5
	@DEBUG_VALUE: operator[]:this <- %R5
	@DEBUG_VALUE: insert:this <- %R5
	@DEBUG_VALUE: size:this <- %R5
	@DEBUG_VALUE: size:this <- %R5
	@DEBUG_VALUE: resize:this <- %R5
	@DEBUG_VALUE: vector:this <- %R5
	@DEBUG_VALUE: ~vector:this <- %R9
	@DEBUG_VALUE: _M_erase_at_end:this <- %R9
	@DEBUG_VALUE: insert:this <- %R9
	@DEBUG_VALUE: size:this <- %R9
	@DEBUG_VALUE: size:this <- %R9
	@DEBUG_VALUE: resize:this <- %R9
	@DEBUG_VALUE: vector:this <- %R9
	@DEBUG_VALUE: ~vector:this <- %R7
	@DEBUG_VALUE: _M_erase_at_end:this <- %R7
	@DEBUG_VALUE: insert:this <- %R7
	@DEBUG_VALUE: size:this <- %R7
	@DEBUG_VALUE: size:this <- %R7
	@DEBUG_VALUE: resize:this <- %R7
	@DEBUG_VALUE: vector:this <- %R7
	@DEBUG_VALUE: filters:this <- %R4
	.loc	8 698 11                @ /usr/bin/../lib/gcc/arm-linux-gnueabihf/6.3.0/../../../../include/c++/6.3.0/bits/stl_vector.h:698:11
	cmp	r2, #5
.Ltmp68:
	.loc	8 699 43                @ /usr/bin/../lib/gcc/arm-linux-gnueabihf/6.3.0/../../../../include/c++/6.3.0/bits/stl_vector.h:699:43
	addne	r0, r0, #20
.Ltmp69:
	@DEBUG_VALUE: _M_erase_at_end:__pos <- %R0
	.loc	8 1437 26               @ /usr/bin/../lib/gcc/arm-linux-gnueabihf/6.3.0/../../../../include/c++/6.3.0/bits/stl_vector.h:1437:26
	strne	r0, [r4, #40]
.Ltmp70:
.LBB0_11:                               @ %_ZNSt6vectorIfSaIfEE6resizeEjRKf.exit11
	@DEBUG_VALUE: ~vector:this <- %R5
	@DEBUG_VALUE: operator[]:this <- %R5
	@DEBUG_VALUE: insert:this <- %R5
	@DEBUG_VALUE: size:this <- %R5
	@DEBUG_VALUE: size:this <- %R5
	@DEBUG_VALUE: resize:this <- %R5
	@DEBUG_VALUE: vector:this <- %R5
	@DEBUG_VALUE: ~vector:this <- %R9
	@DEBUG_VALUE: _M_erase_at_end:this <- %R9
	@DEBUG_VALUE: insert:this <- %R9
	@DEBUG_VALUE: size:this <- %R9
	@DEBUG_VALUE: size:this <- %R9
	@DEBUG_VALUE: resize:this <- %R9
	@DEBUG_VALUE: vector:this <- %R9
	@DEBUG_VALUE: ~vector:this <- %R7
	@DEBUG_VALUE: _M_erase_at_end:this <- %R7
	@DEBUG_VALUE: insert:this <- %R7
	@DEBUG_VALUE: size:this <- %R7
	@DEBUG_VALUE: size:this <- %R7
	@DEBUG_VALUE: resize:this <- %R7
	@DEBUG_VALUE: vector:this <- %R7
	@DEBUG_VALUE: filters:this <- %R4
	.loc	17 17 6                 @ /root/Bela/projects/Physical_model/filters.cpp:17:6
	vmov.i32	q8, #0x0
	.loc	17 17 4 is_stmt 0       @ /root/Bela/projects/Physical_model/filters.cpp:17:4
	add	r1, r4, #64
	mov	r0, #0
	.loc	17 16 6 is_stmt 1       @ /root/Bela/projects/Physical_model/filters.cpp:16:6
	str	r0, [r4, #92]
	.loc	17 17 6                 @ /root/Bela/projects/Physical_model/filters.cpp:17:6
	vst1.32	{d16, d17}, [r1]
	.loc	17 21 6                 @ /root/Bela/projects/Physical_model/filters.cpp:21:6
	mov	r1, #1056964608
	str	r1, [r4, #60]
	.loc	17 22 14                @ /root/Bela/projects/Physical_model/filters.cpp:22:14
	str	r0, [r4, #80]
	.loc	17 23 10                @ /root/Bela/projects/Physical_model/filters.cpp:23:10
	str	r0, [r4, #88]
	.loc	17 24 9                 @ /root/Bela/projects/Physical_model/filters.cpp:24:9
	str	r0, [r4, #96]
	.loc	17 25 16                @ /root/Bela/projects/Physical_model/filters.cpp:25:16
	str	r0, [r4, #104]
	.loc	17 26 17                @ /root/Bela/projects/Physical_model/filters.cpp:26:17
	str	r0, [r4, #48]
	.loc	17 27 15                @ /root/Bela/projects/Physical_model/filters.cpp:27:15
	str	r0, [r4, #52]
	.loc	17 28 12                @ /root/Bela/projects/Physical_model/filters.cpp:28:12
	str	r0, [r4, #56]
.Ltmp71:
	.loc	17 29 1                 @ /root/Bela/projects/Physical_model/filters.cpp:29:1
	mov	r0, r4
	sub	sp, r11, #24
	pop	{r4, r5, r6, r7, r8, r9, r11, pc}
.Ltmp72:
.LBB0_12:
	@DEBUG_VALUE: ~vector:this <- %R5
	@DEBUG_VALUE: operator[]:this <- %R5
	@DEBUG_VALUE: insert:this <- %R5
	@DEBUG_VALUE: size:this <- %R5
	@DEBUG_VALUE: size:this <- %R5
	@DEBUG_VALUE: resize:this <- %R5
	@DEBUG_VALUE: vector:this <- %R5
	@DEBUG_VALUE: ~vector:this <- %R9
	@DEBUG_VALUE: _M_erase_at_end:this <- %R9
	@DEBUG_VALUE: insert:this <- %R9
	@DEBUG_VALUE: size:this <- %R9
	@DEBUG_VALUE: size:this <- %R9
	@DEBUG_VALUE: resize:this <- %R9
	@DEBUG_VALUE: vector:this <- %R9
	@DEBUG_VALUE: ~vector:this <- %R7
	@DEBUG_VALUE: _M_erase_at_end:this <- %R7
	@DEBUG_VALUE: insert:this <- %R7
	@DEBUG_VALUE: size:this <- %R7
	@DEBUG_VALUE: size:this <- %R7
	@DEBUG_VALUE: resize:this <- %R7
	@DEBUG_VALUE: vector:this <- %R7
	@DEBUG_VALUE: filters:this <- %R4
.Ltmp11:
	b	.LBB0_16
.Ltmp73:
.LBB0_13:
	@DEBUG_VALUE: ~vector:this <- %R5
	@DEBUG_VALUE: operator[]:this <- %R5
	@DEBUG_VALUE: insert:this <- %R5
	@DEBUG_VALUE: size:this <- %R5
	@DEBUG_VALUE: size:this <- %R5
	@DEBUG_VALUE: resize:this <- %R5
	@DEBUG_VALUE: vector:this <- %R5
	@DEBUG_VALUE: ~vector:this <- %R9
	@DEBUG_VALUE: _M_erase_at_end:this <- %R9
	@DEBUG_VALUE: insert:this <- %R9
	@DEBUG_VALUE: size:this <- %R9
	@DEBUG_VALUE: size:this <- %R9
	@DEBUG_VALUE: resize:this <- %R9
	@DEBUG_VALUE: vector:this <- %R9
	@DEBUG_VALUE: ~vector:this <- %R7
	@DEBUG_VALUE: _M_erase_at_end:this <- %R7
	@DEBUG_VALUE: insert:this <- %R7
	@DEBUG_VALUE: size:this <- %R7
	@DEBUG_VALUE: size:this <- %R7
	@DEBUG_VALUE: resize:this <- %R7
	@DEBUG_VALUE: vector:this <- %R7
	@DEBUG_VALUE: filters:this <- %R4
.Ltmp8:
	b	.LBB0_16
.Ltmp74:
.LBB0_14:
	@DEBUG_VALUE: ~vector:this <- %R5
	@DEBUG_VALUE: operator[]:this <- %R5
	@DEBUG_VALUE: insert:this <- %R5
	@DEBUG_VALUE: size:this <- %R5
	@DEBUG_VALUE: size:this <- %R5
	@DEBUG_VALUE: resize:this <- %R5
	@DEBUG_VALUE: vector:this <- %R5
	@DEBUG_VALUE: ~vector:this <- %R9
	@DEBUG_VALUE: _M_erase_at_end:this <- %R9
	@DEBUG_VALUE: insert:this <- %R9
	@DEBUG_VALUE: size:this <- %R9
	@DEBUG_VALUE: size:this <- %R9
	@DEBUG_VALUE: resize:this <- %R9
	@DEBUG_VALUE: vector:this <- %R9
	@DEBUG_VALUE: ~vector:this <- %R7
	@DEBUG_VALUE: _M_erase_at_end:this <- %R7
	@DEBUG_VALUE: insert:this <- %R7
	@DEBUG_VALUE: size:this <- %R7
	@DEBUG_VALUE: size:this <- %R7
	@DEBUG_VALUE: resize:this <- %R7
	@DEBUG_VALUE: vector:this <- %R7
	@DEBUG_VALUE: filters:this <- %R4
.Ltmp5:
	b	.LBB0_16
.Ltmp75:
.LBB0_15:
	@DEBUG_VALUE: ~vector:this <- %R5
	@DEBUG_VALUE: operator[]:this <- %R5
	@DEBUG_VALUE: insert:this <- %R5
	@DEBUG_VALUE: size:this <- %R5
	@DEBUG_VALUE: size:this <- %R5
	@DEBUG_VALUE: resize:this <- %R5
	@DEBUG_VALUE: vector:this <- %R5
	@DEBUG_VALUE: ~vector:this <- %R9
	@DEBUG_VALUE: _M_erase_at_end:this <- %R9
	@DEBUG_VALUE: insert:this <- %R9
	@DEBUG_VALUE: size:this <- %R9
	@DEBUG_VALUE: size:this <- %R9
	@DEBUG_VALUE: resize:this <- %R9
	@DEBUG_VALUE: vector:this <- %R9
	@DEBUG_VALUE: ~vector:this <- %R7
	@DEBUG_VALUE: _M_erase_at_end:this <- %R7
	@DEBUG_VALUE: insert:this <- %R7
	@DEBUG_VALUE: size:this <- %R7
	@DEBUG_VALUE: size:this <- %R7
	@DEBUG_VALUE: resize:this <- %R7
	@DEBUG_VALUE: vector:this <- %R7
	@DEBUG_VALUE: filters:this <- %R4
.Ltmp2:
.Ltmp76:
.LBB0_16:
	@DEBUG_VALUE: ~vector:this <- %R5
	@DEBUG_VALUE: operator[]:this <- %R5
	@DEBUG_VALUE: insert:this <- %R5
	@DEBUG_VALUE: size:this <- %R5
	@DEBUG_VALUE: size:this <- %R5
	@DEBUG_VALUE: resize:this <- %R5
	@DEBUG_VALUE: vector:this <- %R5
	@DEBUG_VALUE: ~vector:this <- %R9
	@DEBUG_VALUE: _M_erase_at_end:this <- %R9
	@DEBUG_VALUE: insert:this <- %R9
	@DEBUG_VALUE: size:this <- %R9
	@DEBUG_VALUE: size:this <- %R9
	@DEBUG_VALUE: resize:this <- %R9
	@DEBUG_VALUE: vector:this <- %R9
	@DEBUG_VALUE: ~vector:this <- %R7
	@DEBUG_VALUE: _M_erase_at_end:this <- %R7
	@DEBUG_VALUE: insert:this <- %R7
	@DEBUG_VALUE: size:this <- %R7
	@DEBUG_VALUE: size:this <- %R7
	@DEBUG_VALUE: resize:this <- %R7
	@DEBUG_VALUE: vector:this <- %R7
	@DEBUG_VALUE: filters:this <- %R4
	mov	r8, r0
.Ltmp77:
	.loc	8 160 37                @ /usr/bin/../lib/gcc/arm-linux-gnueabihf/6.3.0/../../../../include/c++/6.3.0/bits/stl_vector.h:160:37
	ldr	r0, [r7]
.Ltmp78:
	@DEBUG_VALUE: _M_deallocate:__p <- %R0
	@DEBUG_VALUE: deallocate:__p <- %R0
	@DEBUG_VALUE: deallocate:__p <- %R0
	.loc	8 177 6                 @ /usr/bin/../lib/gcc/arm-linux-gnueabihf/6.3.0/../../../../include/c++/6.3.0/bits/stl_vector.h:177:6
	cmp	r0, #0
	beq	.LBB0_18
.Ltmp79:
@ BB#17:
	@DEBUG_VALUE: deallocate:__p <- %R0
	@DEBUG_VALUE: deallocate:__p <- %R0
	@DEBUG_VALUE: _M_deallocate:__p <- %R0
	@DEBUG_VALUE: ~vector:this <- %R5
	@DEBUG_VALUE: operator[]:this <- %R5
	@DEBUG_VALUE: insert:this <- %R5
	@DEBUG_VALUE: size:this <- %R5
	@DEBUG_VALUE: size:this <- %R5
	@DEBUG_VALUE: resize:this <- %R5
	@DEBUG_VALUE: vector:this <- %R5
	@DEBUG_VALUE: ~vector:this <- %R9
	@DEBUG_VALUE: _M_erase_at_end:this <- %R9
	@DEBUG_VALUE: insert:this <- %R9
	@DEBUG_VALUE: size:this <- %R9
	@DEBUG_VALUE: size:this <- %R9
	@DEBUG_VALUE: resize:this <- %R9
	@DEBUG_VALUE: vector:this <- %R9
	@DEBUG_VALUE: ~vector:this <- %R7
	@DEBUG_VALUE: _M_erase_at_end:this <- %R7
	@DEBUG_VALUE: insert:this <- %R7
	@DEBUG_VALUE: size:this <- %R7
	@DEBUG_VALUE: size:this <- %R7
	@DEBUG_VALUE: resize:this <- %R7
	@DEBUG_VALUE: vector:this <- %R7
	@DEBUG_VALUE: filters:this <- %R4
	.loc	4 110 9                 @ /usr/bin/../lib/gcc/arm-linux-gnueabihf/6.3.0/../../../../include/c++/6.3.0/ext/new_allocator.h:110:9
	bl	_ZdlPv
.Ltmp80:
.LBB0_18:                               @ %_ZNSt6vectorIfSaIfEED2Ev.exit5
	@DEBUG_VALUE: ~vector:this <- %R5
	@DEBUG_VALUE: operator[]:this <- %R5
	@DEBUG_VALUE: insert:this <- %R5
	@DEBUG_VALUE: size:this <- %R5
	@DEBUG_VALUE: size:this <- %R5
	@DEBUG_VALUE: resize:this <- %R5
	@DEBUG_VALUE: vector:this <- %R5
	@DEBUG_VALUE: ~vector:this <- %R9
	@DEBUG_VALUE: _M_erase_at_end:this <- %R9
	@DEBUG_VALUE: insert:this <- %R9
	@DEBUG_VALUE: size:this <- %R9
	@DEBUG_VALUE: size:this <- %R9
	@DEBUG_VALUE: resize:this <- %R9
	@DEBUG_VALUE: vector:this <- %R9
	@DEBUG_VALUE: ~vector:this <- %R7
	@DEBUG_VALUE: _M_erase_at_end:this <- %R7
	@DEBUG_VALUE: insert:this <- %R7
	@DEBUG_VALUE: size:this <- %R7
	@DEBUG_VALUE: size:this <- %R7
	@DEBUG_VALUE: resize:this <- %R7
	@DEBUG_VALUE: vector:this <- %R7
	@DEBUG_VALUE: filters:this <- %R4
	.loc	8 160 37                @ /usr/bin/../lib/gcc/arm-linux-gnueabihf/6.3.0/../../../../include/c++/6.3.0/bits/stl_vector.h:160:37
	ldr	r0, [r9]
.Ltmp81:
	@DEBUG_VALUE: _M_deallocate:__p <- %R0
	@DEBUG_VALUE: deallocate:__p <- %R0
	@DEBUG_VALUE: deallocate:__p <- %R0
	.loc	8 177 6                 @ /usr/bin/../lib/gcc/arm-linux-gnueabihf/6.3.0/../../../../include/c++/6.3.0/bits/stl_vector.h:177:6
	cmp	r0, #0
	beq	.LBB0_20
.Ltmp82:
@ BB#19:
	@DEBUG_VALUE: deallocate:__p <- %R0
	@DEBUG_VALUE: deallocate:__p <- %R0
	@DEBUG_VALUE: _M_deallocate:__p <- %R0
	@DEBUG_VALUE: ~vector:this <- %R5
	@DEBUG_VALUE: operator[]:this <- %R5
	@DEBUG_VALUE: insert:this <- %R5
	@DEBUG_VALUE: size:this <- %R5
	@DEBUG_VALUE: size:this <- %R5
	@DEBUG_VALUE: resize:this <- %R5
	@DEBUG_VALUE: vector:this <- %R5
	@DEBUG_VALUE: ~vector:this <- %R9
	@DEBUG_VALUE: _M_erase_at_end:this <- %R9
	@DEBUG_VALUE: insert:this <- %R9
	@DEBUG_VALUE: size:this <- %R9
	@DEBUG_VALUE: size:this <- %R9
	@DEBUG_VALUE: resize:this <- %R9
	@DEBUG_VALUE: vector:this <- %R9
	@DEBUG_VALUE: ~vector:this <- %R7
	@DEBUG_VALUE: _M_erase_at_end:this <- %R7
	@DEBUG_VALUE: insert:this <- %R7
	@DEBUG_VALUE: size:this <- %R7
	@DEBUG_VALUE: size:this <- %R7
	@DEBUG_VALUE: resize:this <- %R7
	@DEBUG_VALUE: vector:this <- %R7
	@DEBUG_VALUE: filters:this <- %R4
	.loc	4 110 9                 @ /usr/bin/../lib/gcc/arm-linux-gnueabihf/6.3.0/../../../../include/c++/6.3.0/ext/new_allocator.h:110:9
	bl	_ZdlPv
.Ltmp83:
.LBB0_20:                               @ %_ZNSt6vectorIfSaIfEED2Ev.exit4
	@DEBUG_VALUE: ~vector:this <- %R5
	@DEBUG_VALUE: operator[]:this <- %R5
	@DEBUG_VALUE: insert:this <- %R5
	@DEBUG_VALUE: size:this <- %R5
	@DEBUG_VALUE: size:this <- %R5
	@DEBUG_VALUE: resize:this <- %R5
	@DEBUG_VALUE: vector:this <- %R5
	@DEBUG_VALUE: ~vector:this <- %R9
	@DEBUG_VALUE: _M_erase_at_end:this <- %R9
	@DEBUG_VALUE: insert:this <- %R9
	@DEBUG_VALUE: size:this <- %R9
	@DEBUG_VALUE: size:this <- %R9
	@DEBUG_VALUE: resize:this <- %R9
	@DEBUG_VALUE: vector:this <- %R9
	@DEBUG_VALUE: ~vector:this <- %R7
	@DEBUG_VALUE: _M_erase_at_end:this <- %R7
	@DEBUG_VALUE: insert:this <- %R7
	@DEBUG_VALUE: size:this <- %R7
	@DEBUG_VALUE: size:this <- %R7
	@DEBUG_VALUE: resize:this <- %R7
	@DEBUG_VALUE: vector:this <- %R7
	@DEBUG_VALUE: filters:this <- %R4
	.loc	8 160 37                @ /usr/bin/../lib/gcc/arm-linux-gnueabihf/6.3.0/../../../../include/c++/6.3.0/bits/stl_vector.h:160:37
	ldr	r0, [r5]
.Ltmp84:
	@DEBUG_VALUE: _M_deallocate:__p <- %R0
	@DEBUG_VALUE: deallocate:__p <- %R0
	@DEBUG_VALUE: deallocate:__p <- %R0
	.loc	8 177 6                 @ /usr/bin/../lib/gcc/arm-linux-gnueabihf/6.3.0/../../../../include/c++/6.3.0/bits/stl_vector.h:177:6
	cmp	r0, #0
	beq	.LBB0_22
.Ltmp85:
@ BB#21:
	@DEBUG_VALUE: deallocate:__p <- %R0
	@DEBUG_VALUE: deallocate:__p <- %R0
	@DEBUG_VALUE: _M_deallocate:__p <- %R0
	@DEBUG_VALUE: ~vector:this <- %R5
	@DEBUG_VALUE: operator[]:this <- %R5
	@DEBUG_VALUE: insert:this <- %R5
	@DEBUG_VALUE: size:this <- %R5
	@DEBUG_VALUE: size:this <- %R5
	@DEBUG_VALUE: resize:this <- %R5
	@DEBUG_VALUE: vector:this <- %R5
	@DEBUG_VALUE: ~vector:this <- %R9
	@DEBUG_VALUE: _M_erase_at_end:this <- %R9
	@DEBUG_VALUE: insert:this <- %R9
	@DEBUG_VALUE: size:this <- %R9
	@DEBUG_VALUE: size:this <- %R9
	@DEBUG_VALUE: resize:this <- %R9
	@DEBUG_VALUE: vector:this <- %R9
	@DEBUG_VALUE: ~vector:this <- %R7
	@DEBUG_VALUE: _M_erase_at_end:this <- %R7
	@DEBUG_VALUE: insert:this <- %R7
	@DEBUG_VALUE: size:this <- %R7
	@DEBUG_VALUE: size:this <- %R7
	@DEBUG_VALUE: resize:this <- %R7
	@DEBUG_VALUE: vector:this <- %R7
	@DEBUG_VALUE: filters:this <- %R4
	.loc	4 110 9                 @ /usr/bin/../lib/gcc/arm-linux-gnueabihf/6.3.0/../../../../include/c++/6.3.0/ext/new_allocator.h:110:9
	bl	_ZdlPv
.Ltmp86:
.LBB0_22:                               @ %_ZNSt6vectorIfSaIfEED2Ev.exit3
	@DEBUG_VALUE: ~vector:this <- %R5
	@DEBUG_VALUE: operator[]:this <- %R5
	@DEBUG_VALUE: insert:this <- %R5
	@DEBUG_VALUE: size:this <- %R5
	@DEBUG_VALUE: size:this <- %R5
	@DEBUG_VALUE: resize:this <- %R5
	@DEBUG_VALUE: vector:this <- %R5
	@DEBUG_VALUE: ~vector:this <- %R9
	@DEBUG_VALUE: _M_erase_at_end:this <- %R9
	@DEBUG_VALUE: insert:this <- %R9
	@DEBUG_VALUE: size:this <- %R9
	@DEBUG_VALUE: size:this <- %R9
	@DEBUG_VALUE: resize:this <- %R9
	@DEBUG_VALUE: vector:this <- %R9
	@DEBUG_VALUE: ~vector:this <- %R7
	@DEBUG_VALUE: _M_erase_at_end:this <- %R7
	@DEBUG_VALUE: insert:this <- %R7
	@DEBUG_VALUE: size:this <- %R7
	@DEBUG_VALUE: size:this <- %R7
	@DEBUG_VALUE: resize:this <- %R7
	@DEBUG_VALUE: vector:this <- %R7
	@DEBUG_VALUE: filters:this <- %R4
	.loc	8 160 37                @ /usr/bin/../lib/gcc/arm-linux-gnueabihf/6.3.0/../../../../include/c++/6.3.0/bits/stl_vector.h:160:37
	ldr	r0, [r4]
.Ltmp87:
	@DEBUG_VALUE: _M_deallocate:__p <- %R0
	@DEBUG_VALUE: deallocate:__p <- %R0
	@DEBUG_VALUE: deallocate:__p <- %R0
	.loc	8 177 6                 @ /usr/bin/../lib/gcc/arm-linux-gnueabihf/6.3.0/../../../../include/c++/6.3.0/bits/stl_vector.h:177:6
	cmp	r0, #0
	beq	.LBB0_24
.Ltmp88:
@ BB#23:
	@DEBUG_VALUE: deallocate:__p <- %R0
	@DEBUG_VALUE: deallocate:__p <- %R0
	@DEBUG_VALUE: _M_deallocate:__p <- %R0
	@DEBUG_VALUE: ~vector:this <- %R5
	@DEBUG_VALUE: operator[]:this <- %R5
	@DEBUG_VALUE: insert:this <- %R5
	@DEBUG_VALUE: size:this <- %R5
	@DEBUG_VALUE: size:this <- %R5
	@DEBUG_VALUE: resize:this <- %R5
	@DEBUG_VALUE: vector:this <- %R5
	@DEBUG_VALUE: ~vector:this <- %R9
	@DEBUG_VALUE: _M_erase_at_end:this <- %R9
	@DEBUG_VALUE: insert:this <- %R9
	@DEBUG_VALUE: size:this <- %R9
	@DEBUG_VALUE: size:this <- %R9
	@DEBUG_VALUE: resize:this <- %R9
	@DEBUG_VALUE: vector:this <- %R9
	@DEBUG_VALUE: ~vector:this <- %R7
	@DEBUG_VALUE: _M_erase_at_end:this <- %R7
	@DEBUG_VALUE: insert:this <- %R7
	@DEBUG_VALUE: size:this <- %R7
	@DEBUG_VALUE: size:this <- %R7
	@DEBUG_VALUE: resize:this <- %R7
	@DEBUG_VALUE: vector:this <- %R7
	@DEBUG_VALUE: filters:this <- %R4
	.loc	4 110 9                 @ /usr/bin/../lib/gcc/arm-linux-gnueabihf/6.3.0/../../../../include/c++/6.3.0/ext/new_allocator.h:110:9
	bl	_ZdlPv
.Ltmp89:
.LBB0_24:                               @ %_ZNSt6vectorIfSaIfEED2Ev.exit
	@DEBUG_VALUE: ~vector:this <- %R5
	@DEBUG_VALUE: operator[]:this <- %R5
	@DEBUG_VALUE: insert:this <- %R5
	@DEBUG_VALUE: size:this <- %R5
	@DEBUG_VALUE: size:this <- %R5
	@DEBUG_VALUE: resize:this <- %R5
	@DEBUG_VALUE: vector:this <- %R5
	@DEBUG_VALUE: ~vector:this <- %R9
	@DEBUG_VALUE: _M_erase_at_end:this <- %R9
	@DEBUG_VALUE: insert:this <- %R9
	@DEBUG_VALUE: size:this <- %R9
	@DEBUG_VALUE: size:this <- %R9
	@DEBUG_VALUE: resize:this <- %R9
	@DEBUG_VALUE: vector:this <- %R9
	@DEBUG_VALUE: ~vector:this <- %R7
	@DEBUG_VALUE: _M_erase_at_end:this <- %R7
	@DEBUG_VALUE: insert:this <- %R7
	@DEBUG_VALUE: size:this <- %R7
	@DEBUG_VALUE: size:this <- %R7
	@DEBUG_VALUE: resize:this <- %R7
	@DEBUG_VALUE: vector:this <- %R7
	@DEBUG_VALUE: filters:this <- %R4
	mov	r0, r8
	mov	lr, pc
	b	_Unwind_Resume
.Lfunc_end0:
	.size	_ZN7filtersC2Ev, .Lfunc_end0-_ZN7filtersC2Ev
	.cfi_endproc
	.file	18 "/root/Bela/projects/Physical_model" "filters.h"
	.globl	__gxx_personality_v0
	.personality __gxx_personality_v0
	.handlerdata
	.p2align	2
GCC_except_table0:
.Lexception0:
	.byte	255                     @ @LPStart Encoding = omit
	.byte	0                       @ @TType Encoding = absptr
	.asciz	"\303\200"              @ @TType base offset
	.byte	3                       @ Call site Encoding = udata4
	.byte	65                      @ Call site table length
	.long	.Ltmp0-.Lfunc_begin0    @ >> Call Site 1 <<
	.long	.Ltmp1-.Ltmp0           @   Call between .Ltmp0 and .Ltmp1
	.long	.Ltmp2-.Lfunc_begin0    @     jumps to .Ltmp2
	.byte	0                       @   On action: cleanup
	.long	.Ltmp3-.Lfunc_begin0    @ >> Call Site 2 <<
	.long	.Ltmp4-.Ltmp3           @   Call between .Ltmp3 and .Ltmp4
	.long	.Ltmp5-.Lfunc_begin0    @     jumps to .Ltmp5
	.byte	0                       @   On action: cleanup
	.long	.Ltmp6-.Lfunc_begin0    @ >> Call Site 3 <<
	.long	.Ltmp7-.Ltmp6           @   Call between .Ltmp6 and .Ltmp7
	.long	.Ltmp8-.Lfunc_begin0    @     jumps to .Ltmp8
	.byte	0                       @   On action: cleanup
	.long	.Ltmp9-.Lfunc_begin0    @ >> Call Site 4 <<
	.long	.Ltmp10-.Ltmp9          @   Call between .Ltmp9 and .Ltmp10
	.long	.Ltmp11-.Lfunc_begin0   @     jumps to .Ltmp11
	.byte	0                       @   On action: cleanup
	.long	.Ltmp10-.Lfunc_begin0   @ >> Call Site 5 <<
	.long	.Lfunc_end0-.Ltmp10     @   Call between .Ltmp10 and .Lfunc_end0
	.long	0                       @     has no landing pad
	.byte	0                       @   On action: cleanup
	.p2align	2
	.fnend

	.globl	_ZN7filters21calculateCoefficientsEf
	.p2align	3
	.type	_ZN7filters21calculateCoefficientsEf,%function
_ZN7filters21calculateCoefficientsEf:   @ @_ZN7filters21calculateCoefficientsEf
.Lfunc_begin1:
	.loc	17 37 0                 @ /root/Bela/projects/Physical_model/filters.cpp:37:0
	.fnstart
	.cfi_startproc
@ BB#0:
	.save	{r4, r5, r6, r10, r11, lr}
	push	{r4, r5, r6, r10, r11, lr}
.Ltmp90:
	.cfi_def_cfa_offset 24
.Ltmp91:
	.cfi_offset lr, -4
.Ltmp92:
	.cfi_offset r11, -8
.Ltmp93:
	.cfi_offset r10, -12
.Ltmp94:
	.cfi_offset r6, -16
.Ltmp95:
	.cfi_offset r5, -20
.Ltmp96:
	.cfi_offset r4, -24
	.setfp	r11, sp, #16
	add	r11, sp, #16
.Ltmp97:
	.cfi_def_cfa r11, 8
	.vsave	{d8}
	vpush	{d8}
.Ltmp98:
	.cfi_offset d8, -32
	@DEBUG_VALUE: calculateCoefficients:this <- %R0
	@DEBUG_VALUE: calculateCoefficients:freq <- %S0
	mov	r4, r0
.Ltmp99:
	@DEBUG_VALUE: calculateCoefficients:this <- %R4
	.loc	17 38 19 prologue_end   @ /root/Bela/projects/Physical_model/filters.cpp:38:19
	vmov.f32	d16, #5.000000e-01
	.loc	17 38 17 is_stmt 0      @ /root/Bela/projects/Physical_model/filters.cpp:38:17
	vldr	s2, [r4, #136]
	.loc	17 39 7 is_stmt 1       @ /root/Bela/projects/Physical_model/filters.cpp:39:7
	vldr	s4, .LCPI1_1
	.loc	17 38 19                @ /root/Bela/projects/Physical_model/filters.cpp:38:19
	vmul.f32	d17, d1, d16
	.loc	17 44 52                @ /root/Bela/projects/Physical_model/filters.cpp:44:52
	vldr	d19, .LCPI1_2
	.loc	17 38 14                @ /root/Bela/projects/Physical_model/filters.cpp:38:14
	vadd.f32	d1, d17, d16
.Ltmp100:
	.loc	17 39 12                @ /root/Bela/projects/Physical_model/filters.cpp:39:12
	vldr	d16, .LCPI1_0
	.loc	17 39 7 is_stmt 0       @ /root/Bela/projects/Physical_model/filters.cpp:39:7
	vcvt.f64.f32	d17, s2
.Ltmp101:
	.loc	17 39 7                 @ /root/Bela/projects/Physical_model/filters.cpp:39:7
	vcmpe.f64	d17, d16
	vmrs	APSR_nzcv, fpscr
	.loc	17 44 16 is_stmt 1      @ /root/Bela/projects/Physical_model/filters.cpp:44:16
	vmov.f64	d17, #-2.000000e+00
	.loc	17 39 7                 @ /root/Bela/projects/Physical_model/filters.cpp:39:7
	vmovgt.f32	s2, s4
	.loc	17 40 14                @ /root/Bela/projects/Physical_model/filters.cpp:40:14
	vmul.f32	d2, d1, d1
	.loc	17 38 7                 @ /root/Bela/projects/Physical_model/filters.cpp:38:7
	vstr	s2, [r4, #96]
	.loc	17 40 8                 @ /root/Bela/projects/Physical_model/filters.cpp:40:8
	vstr	s4, [r4, #88]
.Ltmp102:
	@DEBUG_VALUE: operator[]:__n <- 2
	.loc	8 781 32                @ /usr/bin/../lib/gcc/arm-linux-gnueabihf/6.3.0/../../../../include/c++/6.3.0/bits/stl_vector.h:781:32
	ldr	r5, [r4]
.Ltmp103:
	.loc	17 41 6                 @ /root/Bela/projects/Physical_model/filters.cpp:41:6
	vstr	s4, [r5, #8]
.Ltmp104:
	@DEBUG_VALUE: operator[]:__n <- 0
	.loc	8 781 32                @ /usr/bin/../lib/gcc/arm-linux-gnueabihf/6.3.0/../../../../include/c++/6.3.0/bits/stl_vector.h:781:32
	ldr	r6, [r4, #12]
.Ltmp105:
	.loc	17 42 7                 @ /root/Bela/projects/Physical_model/filters.cpp:42:7
	ldr	r0, [r4, #88]
	.loc	17 42 6 is_stmt 0       @ /root/Bela/projects/Physical_model/filters.cpp:42:6
	str	r0, [r6]
	.loc	17 43 6 is_stmt 1       @ /root/Bela/projects/Physical_model/filters.cpp:43:6
	mov	r0, #1065353216
.Ltmp106:
	@DEBUG_VALUE: operator[]:__n <- 2
	str	r0, [r6, #8]
	.loc	17 44 59                @ /root/Bela/projects/Physical_model/filters.cpp:44:59
	vldr	s4, [r4, #112]
	.loc	17 44 18 is_stmt 0      @ /root/Bela/projects/Physical_model/filters.cpp:44:18
	vldr	s2, [r4, #96]
	.loc	17 44 58                @ /root/Bela/projects/Physical_model/filters.cpp:44:58
	vdiv.f32	s0, s0, s4
.Ltmp107:
	.loc	17 44 53                @ /root/Bela/projects/Physical_model/filters.cpp:44:53
	vcvt.f64.f32	d18, s0
	.loc	17 44 52                @ /root/Bela/projects/Physical_model/filters.cpp:44:52
	vmul.f64	d0, d18, d19
	.loc	17 44 18                @ /root/Bela/projects/Physical_model/filters.cpp:44:18
	vcvt.f64.f32	d16, s2
	.loc	17 44 16                @ /root/Bela/projects/Physical_model/filters.cpp:44:16
	vmul.f64	d8, d16, d17
	.loc	17 44 24                @ /root/Bela/projects/Physical_model/filters.cpp:44:24
	bl	cos
	.loc	17 44 23                @ /root/Bela/projects/Physical_model/filters.cpp:44:23
	vmul.f64	d16, d8, d0
	.loc	17 44 10                @ /root/Bela/projects/Physical_model/filters.cpp:44:10
	vcvt.f32.f64	s0, d16
	.loc	17 44 8                 @ /root/Bela/projects/Physical_model/filters.cpp:44:8
	vstr	s0, [r4, #88]
.Ltmp108:
	@DEBUG_VALUE: operator[]:__n <- 1
	.loc	17 45 7 is_stmt 1       @ /root/Bela/projects/Physical_model/filters.cpp:45:7
	vstr	s0, [r5, #4]
	.loc	17 46 9                 @ /root/Bela/projects/Physical_model/filters.cpp:46:9
	ldr	r0, [r4, #88]
.Ltmp109:
	@DEBUG_VALUE: operator[]:__n <- 1
	.loc	17 46 7 is_stmt 0       @ /root/Bela/projects/Physical_model/filters.cpp:46:7
	str	r0, [r6, #4]
	.loc	17 47 1 is_stmt 1       @ /root/Bela/projects/Physical_model/filters.cpp:47:1
	vpop	{d8}
	pop	{r4, r5, r6, r10, r11, pc}
.Ltmp110:
	.p2align	3
@ BB#1:
.LCPI1_0:
	.long	122320669               @ double 0.99999000000000004
	.long	1072693227
.LCPI1_2:
	.long	1413754136              @ double 6.2831853071795862
	.long	1075388923
.LCPI1_1:
	.long	1065353048              @ float 0.999989986
.Lfunc_end1:
	.size	_ZN7filters21calculateCoefficientsEf, .Lfunc_end1-_ZN7filters21calculateCoefficientsEf
	.cfi_endproc
	.fnend

	.globl	_ZN7filters12filterSignalEf
	.p2align	2
	.type	_ZN7filters12filterSignalEf,%function
_ZN7filters12filterSignalEf:            @ @_ZN7filters12filterSignalEf
.Lfunc_begin2:
	.loc	17 58 0                 @ /root/Bela/projects/Physical_model/filters.cpp:58:0
	.fnstart
	.cfi_startproc
@ BB#0:
	@DEBUG_VALUE: filterSignal:this <- %R0
	@DEBUG_VALUE: filterSignal:in <- %S0
	.loc	8 781 32 prologue_end   @ /usr/bin/../lib/gcc/arm-linux-gnueabihf/6.3.0/../../../../include/c++/6.3.0/bits/stl_vector.h:781:32
	ldr	r1, [r0, #24]
                                        @ kill: %S0<def> %S0<kill> %D0<def>
.Ltmp111:
	@DEBUG_VALUE: operator[]:__n <- 0
	.loc	17 59 11                @ /root/Bela/projects/Physical_model/filters.cpp:59:11
	vstr	s0, [r1]
.Ltmp112:
	@DEBUG_VALUE: operator[]:__n <- 2
	.loc	8 781 32                @ /usr/bin/../lib/gcc/arm-linux-gnueabihf/6.3.0/../../../../include/c++/6.3.0/bits/stl_vector.h:781:32
	ldr	r3, [r0, #12]
.Ltmp113:
	@DEBUG_VALUE: operator[]:__n <- 2
	.loc	8 781 32 is_stmt 0      @ /usr/bin/../lib/gcc/arm-linux-gnueabihf/6.3.0/../../../../include/c++/6.3.0/bits/stl_vector.h:781:32
	ldr	r2, [r0]
.Ltmp114:
	@DEBUG_VALUE: operator[]:__n <- 0
	.loc	8 781 32                @ /usr/bin/../lib/gcc/arm-linux-gnueabihf/6.3.0/../../../../include/c++/6.3.0/bits/stl_vector.h:781:32
	ldr	r0, [r0, #36]
.Ltmp115:
	@DEBUG_VALUE: operator[]:__n <- 1
	@DEBUG_VALUE: operator[]:__n <- 2
	@DEBUG_VALUE: operator[]:__n <- 1
	.loc	17 60 15 is_stmt 1      @ /root/Bela/projects/Physical_model/filters.cpp:60:15
	vldr	s2, [r3]
	.loc	17 60 33 is_stmt 0      @ /root/Bela/projects/Physical_model/filters.cpp:60:33
	vldr	s4, [r3, #4]
	.loc	17 60 20                @ /root/Bela/projects/Physical_model/filters.cpp:60:20
	vmul.f32	d17, d1, d0
.Ltmp116:
	@DEBUG_VALUE: operator[]:__n <- 2
	@DEBUG_VALUE: operator[]:__n <- 1
	.loc	17 60 40                @ /root/Bela/projects/Physical_model/filters.cpp:60:40
	vldr	s2, [r1, #4]
	.loc	17 61 10 is_stmt 1      @ /root/Bela/projects/Physical_model/filters.cpp:61:10
	vldr	s10, [r2, #8]
.Ltmp117:
	@DEBUG_VALUE: operator[]:__n <- 0
	.loc	17 61 17 is_stmt 0      @ /root/Bela/projects/Physical_model/filters.cpp:61:17
	vldr	s14, [r0, #8]
	.loc	17 60 38 is_stmt 1      @ /root/Bela/projects/Physical_model/filters.cpp:60:38
	vmul.f32	d18, d1, d2
	.loc	17 60 51 is_stmt 0      @ /root/Bela/projects/Physical_model/filters.cpp:60:51
	vldr	s6, [r3, #8]
.Ltmp118:
	@DEBUG_VALUE: operator[]:__n <- 1
	vmul.f32	d16, d7, d5
	.loc	17 60 58                @ /root/Bela/projects/Physical_model/filters.cpp:60:58
	vldr	s10, [r1, #8]
	.loc	17 61 29 is_stmt 1      @ /root/Bela/projects/Physical_model/filters.cpp:61:29
	vldr	s8, [r2, #4]
	.loc	17 61 36 is_stmt 0      @ /root/Bela/projects/Physical_model/filters.cpp:61:36
	vldr	s12, [r0, #4]
	.loc	17 60 56 is_stmt 1      @ /root/Bela/projects/Physical_model/filters.cpp:60:56
	vmul.f32	d20, d5, d3
.Ltmp119:
	@DEBUG_VALUE: operator[]:__n <- 2
	@DEBUG_VALUE: operator[]:__n <- 1
	.loc	17 60 31 is_stmt 0      @ /root/Bela/projects/Physical_model/filters.cpp:60:31
	vadd.f32	d17, d18, d17
	.loc	17 62 11 is_stmt 1      @ /root/Bela/projects/Physical_model/filters.cpp:62:11
	vstr	s2, [r1, #8]
	vmul.f32	d19, d6, d4
	.loc	17 63 11                @ /root/Bela/projects/Physical_model/filters.cpp:63:11
	vstr	s0, [r1, #4]
.Ltmp120:
	@DEBUG_VALUE: operator[]:__n <- 1
	.loc	17 64 14                @ /root/Bela/projects/Physical_model/filters.cpp:64:14
	ldr	r1, [r0, #4]
.Ltmp121:
	@DEBUG_VALUE: filterSignal:out <- undef
	.loc	17 64 12 is_stmt 0      @ /root/Bela/projects/Physical_model/filters.cpp:64:12
	str	r1, [r0, #8]
.Ltmp122:
	@DEBUG_VALUE: operator[]:__n <- 1
	@DEBUG_VALUE: filterSignal:out <- %S0
	.loc	17 60 49 is_stmt 1      @ /root/Bela/projects/Physical_model/filters.cpp:60:49
	vadd.f32	d17, d17, d20
.Ltmp123:
	@DEBUG_VALUE: operator[]:__n <- 1
	@DEBUG_VALUE: operator[]:__n <- 0
	vadd.f32	d16, d19, d16
	vsub.f32	d0, d17, d16
.Ltmp124:
	@DEBUG_VALUE: operator[]:__n <- 2
	.loc	17 65 12                @ /root/Bela/projects/Physical_model/filters.cpp:65:12
	vstr	s0, [r0, #4]
	.loc	17 66 2                 @ /root/Bela/projects/Physical_model/filters.cpp:66:2
                                        @ kill: %S0<def> %S0<kill> %D0<kill>
	bx	lr
.Ltmp125:
.Lfunc_end2:
	.size	_ZN7filters12filterSignalEf, .Lfunc_end2-_ZN7filters12filterSignalEf
	.cfi_endproc
	.fnend

	.globl	_ZN7filters19calculatePhaseDelayEv
	.p2align	3
	.type	_ZN7filters19calculatePhaseDelayEv,%function
_ZN7filters19calculatePhaseDelayEv:     @ @_ZN7filters19calculatePhaseDelayEv
.Lfunc_begin3:
	.loc	17 74 0                 @ /root/Bela/projects/Physical_model/filters.cpp:74:0
	.fnstart
	.cfi_startproc
@ BB#0:
	.save	{r4, r5, r11, lr}
	push	{r4, r5, r11, lr}
.Ltmp126:
	.cfi_def_cfa_offset 16
.Ltmp127:
	.cfi_offset lr, -4
.Ltmp128:
	.cfi_offset r11, -8
.Ltmp129:
	.cfi_offset r5, -12
.Ltmp130:
	.cfi_offset r4, -16
	.setfp	r11, sp, #8
	add	r11, sp, #8
.Ltmp131:
	.cfi_def_cfa r11, 8
	.vsave	{d8, d9, d10, d11, d12, d13, d14}
	vpush	{d8, d9, d10, d11, d12, d13, d14}
.Ltmp132:
	.cfi_offset d14, -24
.Ltmp133:
	.cfi_offset d13, -32
.Ltmp134:
	.cfi_offset d12, -40
.Ltmp135:
	.cfi_offset d11, -48
.Ltmp136:
	.cfi_offset d10, -56
.Ltmp137:
	.cfi_offset d9, -64
.Ltmp138:
	.cfi_offset d8, -72
	@DEBUG_VALUE: calculatePhaseDelay:this <- %R0
	mov	r4, r0
.Ltmp139:
	@DEBUG_VALUE: calculatePhaseDelay:this <- %R4
	.loc	17 75 30 prologue_end   @ /root/Bela/projects/Physical_model/filters.cpp:75:30
	vldr	d17, .LCPI3_0
	.loc	17 75 31 is_stmt 0      @ /root/Bela/projects/Physical_model/filters.cpp:75:31
	vldr	s2, [r4, #116]
	.loc	17 75 35                @ /root/Bela/projects/Physical_model/filters.cpp:75:35
	vldr	s0, [r4, #112]
	.loc	17 75 31                @ /root/Bela/projects/Physical_model/filters.cpp:75:31
	vcvt.f64.f32	d16, s2
	.loc	17 75 30                @ /root/Bela/projects/Physical_model/filters.cpp:75:30
	vmul.f64	d16, d16, d17
	.loc	17 75 35                @ /root/Bela/projects/Physical_model/filters.cpp:75:35
	vcvt.f64.f32	d17, s0
	.loc	17 75 34                @ /root/Bela/projects/Physical_model/filters.cpp:75:34
	vdiv.f64	d16, d16, d17
	.loc	17 75 6                 @ /root/Bela/projects/Physical_model/filters.cpp:75:6
	vcvt.f32.f64	s24, d16
	.loc	17 76 21 is_stmt 1      @ /root/Bela/projects/Physical_model/filters.cpp:76:21
	vcvt.f64.f32	d8, s24
	.loc	17 76 17 is_stmt 0 discriminator 2 @ /root/Bela/projects/Physical_model/filters.cpp:76:17
	vmov.f64	d0, d8
	.loc	17 75 4 is_stmt 1       @ /root/Bela/projects/Physical_model/filters.cpp:75:4
	vstr	s24, [r4, #60]
	.loc	17 76 17 discriminator 2 @ /root/Bela/projects/Physical_model/filters.cpp:76:17
	bl	cos
.Ltmp140:
	.loc	8 781 32                @ /usr/bin/../lib/gcc/arm-linux-gnueabihf/6.3.0/../../../../include/c++/6.3.0/bits/stl_vector.h:781:32
	ldr	r5, [r4, #12]
.Ltmp141:
	@DEBUG_VALUE: operator[]:__n <- 2
	@DEBUG_VALUE: operator[]:__n <- 1
	.loc	17 76 34                @ /root/Bela/projects/Physical_model/filters.cpp:76:34
	vadd.f32	d1, d12, d12
	.loc	17 76 17 is_stmt 0 discriminator 2 @ /root/Bela/projects/Physical_model/filters.cpp:76:17
	vmov.f64	d9, d0
.Ltmp142:
	@DEBUG_VALUE: operator[]:__n <- 0
	.loc	17 76 12                @ /root/Bela/projects/Physical_model/filters.cpp:76:12
	vldr	s0, [r5, #4]
	.loc	17 76 7                 @ /root/Bela/projects/Physical_model/filters.cpp:76:7
	vldr	s22, [r5]
	.loc	17 76 12                @ /root/Bela/projects/Physical_model/filters.cpp:76:12
	vcvt.f64.f32	d16, s0
	.loc	17 76 33                @ /root/Bela/projects/Physical_model/filters.cpp:76:33
	vcvt.f64.f32	d0, s2
	.loc	17 76 24                @ /root/Bela/projects/Physical_model/filters.cpp:76:24
	vldr	s26, [r5, #8]
	.loc	17 76 16                @ /root/Bela/projects/Physical_model/filters.cpp:76:16
	vmul.f64	d14, d16, d9
	.loc	17 76 29 discriminator 4 @ /root/Bela/projects/Physical_model/filters.cpp:76:29
	bl	cos
	.loc	17 76 24                @ /root/Bela/projects/Physical_model/filters.cpp:76:24
	vcvt.f64.f32	d16, s26
	.loc	17 76 29 discriminator 4 @ /root/Bela/projects/Physical_model/filters.cpp:76:29
	vmov.f64	d10, d0
	.loc	17 76 7                 @ /root/Bela/projects/Physical_model/filters.cpp:76:7
	vcvt.f64.f32	d17, s22
	.loc	17 76 28                @ /root/Bela/projects/Physical_model/filters.cpp:76:28
	vmul.f64	d16, d16, d10
	.loc	17 76 11                @ /root/Bela/projects/Physical_model/filters.cpp:76:11
	vadd.f64	d17, d14, d17
	.loc	17 76 23                @ /root/Bela/projects/Physical_model/filters.cpp:76:23
	vadd.f64	d16, d17, d16
	.loc	17 77 37 is_stmt 1      @ /root/Bela/projects/Physical_model/filters.cpp:77:37
	vmov.f32	d17, #-2.000000e+00
	.loc	17 76 6                 @ /root/Bela/projects/Physical_model/filters.cpp:76:6
	vcvt.f32.f64	s26, d16
	.loc	17 77 37                @ /root/Bela/projects/Physical_model/filters.cpp:77:37
	vmul.f32	d0, d12, d17
	.loc	17 76 4                 @ /root/Bela/projects/Physical_model/filters.cpp:76:4
	vstr	s26, [r4, #64]
	.loc	17 77 33                @ /root/Bela/projects/Physical_model/filters.cpp:77:33
	vcvt.f64.f32	d0, s0
	.loc	17 77 29 is_stmt 0 discriminator 3 @ /root/Bela/projects/Physical_model/filters.cpp:77:29
	bl	sin
	.loc	17 77 20                @ /root/Bela/projects/Physical_model/filters.cpp:77:20
	vneg.f32	d1, d12
	.loc	17 77 7                 @ /root/Bela/projects/Physical_model/filters.cpp:77:7
	vldr	s28, [r5, #4]
	.loc	17 77 29 discriminator 3 @ /root/Bela/projects/Physical_model/filters.cpp:77:29
	vmov.f64	d11, d0
.Ltmp143:
	@DEBUG_VALUE: operator[]:__n <- 2
	@DEBUG_VALUE: operator[]:__n <- 1
	.loc	17 77 24                @ /root/Bela/projects/Physical_model/filters.cpp:77:24
	vldr	s0, [r5, #8]
	vcvt.f64.f32	d16, s0
	.loc	17 77 16                @ /root/Bela/projects/Physical_model/filters.cpp:77:16
	vcvt.f64.f32	d0, s2
	.loc	17 77 28                @ /root/Bela/projects/Physical_model/filters.cpp:77:28
	vmul.f64	d12, d16, d11
	.loc	17 77 12 discriminator 1 @ /root/Bela/projects/Physical_model/filters.cpp:77:12
	bl	sin
	.loc	17 77 7                 @ /root/Bela/projects/Physical_model/filters.cpp:77:7
	vcvt.f64.f32	d16, s28
	.loc	17 77 11                @ /root/Bela/projects/Physical_model/filters.cpp:77:11
	vmul.f64	d16, d0, d16
	.loc	17 77 23                @ /root/Bela/projects/Physical_model/filters.cpp:77:23
	vadd.f64	d16, d12, d16
	.loc	17 77 6                 @ /root/Bela/projects/Physical_model/filters.cpp:77:6
	vcvt.f32.f64	s4, d16
	.loc	17 77 4                 @ /root/Bela/projects/Physical_model/filters.cpp:77:4
	vstr	s4, [r4, #68]
.Ltmp144:
	@DEBUG_VALUE: operator[]:__n <- 0
	.loc	8 781 32 is_stmt 1      @ /usr/bin/../lib/gcc/arm-linux-gnueabihf/6.3.0/../../../../include/c++/6.3.0/bits/stl_vector.h:781:32
	ldr	r0, [r4]
.Ltmp145:
	@DEBUG_VALUE: operator[]:__n <- 2
	@DEBUG_VALUE: operator[]:__n <- 1
	.loc	17 78 11                @ /root/Bela/projects/Physical_model/filters.cpp:78:11
	vldr	s6, [r0, #4]
	.loc	17 78 23 is_stmt 0      @ /root/Bela/projects/Physical_model/filters.cpp:78:23
	vldr	s8, [r0, #8]
	.loc	17 78 11                @ /root/Bela/projects/Physical_model/filters.cpp:78:11
	vcvt.f64.f32	d17, s6
	.loc	17 78 15                @ /root/Bela/projects/Physical_model/filters.cpp:78:15
	vmul.f64	d17, d9, d17
	.loc	17 78 23                @ /root/Bela/projects/Physical_model/filters.cpp:78:23
	vcvt.f64.f32	d16, s8
	.loc	17 78 6                 @ /root/Bela/projects/Physical_model/filters.cpp:78:6
	vldr	s2, [r0]
	.loc	17 78 27                @ /root/Bela/projects/Physical_model/filters.cpp:78:27
	vmul.f64	d16, d16, d10
	.loc	17 78 6                 @ /root/Bela/projects/Physical_model/filters.cpp:78:6
	vcvt.f64.f32	d18, s2
	.loc	17 78 10                @ /root/Bela/projects/Physical_model/filters.cpp:78:10
	vadd.f64	d17, d17, d18
	.loc	17 78 22                @ /root/Bela/projects/Physical_model/filters.cpp:78:22
	vadd.f64	d16, d17, d16
	.loc	17 78 6                 @ /root/Bela/projects/Physical_model/filters.cpp:78:6
	vcvt.f32.f64	s20, d16
	.loc	17 78 4                 @ /root/Bela/projects/Physical_model/filters.cpp:78:4
	vstr	s20, [r4, #72]
.Ltmp146:
	@DEBUG_VALUE: operator[]:__n <- 2
	@DEBUG_VALUE: operator[]:__n <- 1
	.loc	17 79 5 is_stmt 1       @ /root/Bela/projects/Physical_model/filters.cpp:79:5
	vldr	s2, [r0, #4]
	.loc	17 79 22 is_stmt 0      @ /root/Bela/projects/Physical_model/filters.cpp:79:22
	vldr	s6, [r0, #8]
	.loc	17 79 5                 @ /root/Bela/projects/Physical_model/filters.cpp:79:5
	vcvt.f64.f32	d17, s2
	.loc	17 79 22                @ /root/Bela/projects/Physical_model/filters.cpp:79:22
	vcvt.f64.f32	d16, s6
	.loc	17 79 9                 @ /root/Bela/projects/Physical_model/filters.cpp:79:9
	vmul.f64	d17, d0, d17
	.loc	17 79 26                @ /root/Bela/projects/Physical_model/filters.cpp:79:26
	vmul.f64	d16, d16, d11
	.loc	17 79 21                @ /root/Bela/projects/Physical_model/filters.cpp:79:21
	vadd.f64	d16, d16, d17
	.loc	17 79 5                 @ /root/Bela/projects/Physical_model/filters.cpp:79:5
	vcvt.f32.f64	s22, d16
	.loc	17 80 26 is_stmt 1      @ /root/Bela/projects/Physical_model/filters.cpp:80:26
	vcvt.f64.f32	d1, s26
	.loc	17 80 24 is_stmt 0      @ /root/Bela/projects/Physical_model/filters.cpp:80:24
	vcvt.f64.f32	d0, s4
	.loc	17 79 3 is_stmt 1       @ /root/Bela/projects/Physical_model/filters.cpp:79:3
	vstr	s22, [r4, #76]
	.loc	17 80 18                @ /root/Bela/projects/Physical_model/filters.cpp:80:18
	bl	__atan2_finite
	vmov.f64	d9, d0
	.loc	17 80 39 is_stmt 0      @ /root/Bela/projects/Physical_model/filters.cpp:80:39
	vcvt.f64.f32	d1, s20
	.loc	17 80 37                @ /root/Bela/projects/Physical_model/filters.cpp:80:37
	vcvt.f64.f32	d0, s22
	.loc	17 80 31 discriminator 1 @ /root/Bela/projects/Physical_model/filters.cpp:80:31
	bl	__atan2_finite
	.loc	17 80 29                @ /root/Bela/projects/Physical_model/filters.cpp:80:29
	vsub.f64	d16, d0, d9
	.loc	17 80 42                @ /root/Bela/projects/Physical_model/filters.cpp:80:42
	vdiv.f64	d16, d16, d8
	.loc	17 80 14                @ /root/Bela/projects/Physical_model/filters.cpp:80:14
	vcvt.f32.f64	s0, d16
	.loc	17 80 12                @ /root/Bela/projects/Physical_model/filters.cpp:80:12
	vstr	s0, [r4, #80]
	.loc	17 82 2 is_stmt 1       @ /root/Bela/projects/Physical_model/filters.cpp:82:2
	vpop	{d8, d9, d10, d11, d12, d13, d14}
	pop	{r4, r5, r11, pc}
.Ltmp147:
	.p2align	3
@ BB#1:
.LCPI3_0:
	.long	1413754136              @ double 6.2831853071795862
	.long	1075388923
.Lfunc_end3:
	.size	_ZN7filters19calculatePhaseDelayEv, .Lfunc_end3-_ZN7filters19calculatePhaseDelayEv
	.cfi_endproc
	.fnend

	.globl	_ZN7filters15twoPointAverageEf
	.p2align	2
	.type	_ZN7filters15twoPointAverageEf,%function
_ZN7filters15twoPointAverageEf:         @ @_ZN7filters15twoPointAverageEf
.Lfunc_begin4:
	.loc	17 88 0                 @ /root/Bela/projects/Physical_model/filters.cpp:88:0
	.fnstart
	.cfi_startproc
@ BB#0:
	@DEBUG_VALUE: twoPointAverage:this <- %R0
	@DEBUG_VALUE: twoPointAverage:in <- %S0
	.loc	8 781 32 prologue_end   @ /usr/bin/../lib/gcc/arm-linux-gnueabihf/6.3.0/../../../../include/c++/6.3.0/bits/stl_vector.h:781:32
	ldr	r0, [r0, #24]
.Ltmp148:
                                        @ kill: %S0<def> %S0<kill> %D0<def>
.Ltmp149:
	@DEBUG_VALUE: operator[]:__n <- 0
	.loc	17 91 38                @ /root/Bela/projects/Physical_model/filters.cpp:91:38
	vmov.f32	d16, #5.000000e-01
	.loc	17 90 11                @ /root/Bela/projects/Physical_model/filters.cpp:90:11
	vstr	s0, [r0]
.Ltmp150:
	@DEBUG_VALUE: operator[]:__n <- 1
	@DEBUG_VALUE: operator[]:__n <- 0
	.loc	17 91 29                @ /root/Bela/projects/Physical_model/filters.cpp:91:29
	vldr	s2, [r0, #4]
	.loc	17 92 11                @ /root/Bela/projects/Physical_model/filters.cpp:92:11
	vstr	s0, [r0, #4]
.Ltmp151:
	@DEBUG_VALUE: twoPointAverage:ksBuff <- %S2
	.loc	17 91 27                @ /root/Bela/projects/Physical_model/filters.cpp:91:27
	vadd.f32	d17, d1, d0
	.loc	17 91 38 is_stmt 0      @ /root/Bela/projects/Physical_model/filters.cpp:91:38
	vmul.f32	d1, d17, d16
.Ltmp152:
	@DEBUG_VALUE: operator[]:__n <- 1
	@DEBUG_VALUE: operator[]:__n <- 0
	.loc	17 93 2 is_stmt 1       @ /root/Bela/projects/Physical_model/filters.cpp:93:2
	vmov.f32	s0, s2
	bx	lr
.Ltmp153:
.Lfunc_end4:
	.size	_ZN7filters15twoPointAverageEf, .Lfunc_end4-_ZN7filters15twoPointAverageEf
	.cfi_endproc
	.fnend

	.globl	_ZN7filters12DampenStringEf
	.p2align	3
	.type	_ZN7filters12DampenStringEf,%function
_ZN7filters12DampenStringEf:            @ @_ZN7filters12DampenStringEf
.Lfunc_begin5:
	.loc	17 102 0                @ /root/Bela/projects/Physical_model/filters.cpp:102:0
	.fnstart
	.cfi_startproc
@ BB#0:
	.save	{r4, r10, r11, lr}
	push	{r4, r10, r11, lr}
.Ltmp154:
	.cfi_def_cfa_offset 16
.Ltmp155:
	.cfi_offset lr, -4
.Ltmp156:
	.cfi_offset r11, -8
.Ltmp157:
	.cfi_offset r10, -12
.Ltmp158:
	.cfi_offset r4, -16
	.setfp	r11, sp, #8
	add	r11, sp, #8
.Ltmp159:
	.cfi_def_cfa r11, 8
	.vsave	{d8, d9, d10}
	vpush	{d8, d9, d10}
.Ltmp160:
	.cfi_offset d10, -24
.Ltmp161:
	.cfi_offset d9, -32
.Ltmp162:
	.cfi_offset d8, -40
	@DEBUG_VALUE: DampenString:this <- %R0
	@DEBUG_VALUE: DampenString:in <- %S0
	vmov.f32	s16, s0
.Ltmp163:
	@DEBUG_VALUE: operator[]:__n <- 0
	@DEBUG_VALUE: DampenString:in <- %S16
	.loc	8 781 32 prologue_end   @ /usr/bin/../lib/gcc/arm-linux-gnueabihf/6.3.0/../../../../include/c++/6.3.0/bits/stl_vector.h:781:32
	ldr	r4, [r0, #24]
.Ltmp164:
	.loc	17 104 27               @ /root/Bela/projects/Physical_model/filters.cpp:104:27
	vmov.f64	d10, #1.000000e+00
	.loc	17 103 11               @ /root/Bela/projects/Physical_model/filters.cpp:103:11
	vstr	s16, [r4]
	.loc	17 104 29               @ /root/Bela/projects/Physical_model/filters.cpp:104:29
	vldr	s0, [r0, #116]
	.loc	17 104 33 is_stmt 0     @ /root/Bela/projects/Physical_model/filters.cpp:104:33
	vldr	s2, [r0, #132]
	.loc	17 105 29 is_stmt 1     @ /root/Bela/projects/Physical_model/filters.cpp:105:29
	vldr	s18, [r0, #120]
	.loc	17 104 32               @ /root/Bela/projects/Physical_model/filters.cpp:104:32
	vmul.f32	d0, d1, d0
	.loc	17 104 28 is_stmt 0     @ /root/Bela/projects/Physical_model/filters.cpp:104:28
	vcvt.f64.f32	d16, s0
	.loc	17 104 27               @ /root/Bela/projects/Physical_model/filters.cpp:104:27
	vdiv.f64	d1, d10, d16
	.loc	17 104 14 discriminator 1 @ /root/Bela/projects/Physical_model/filters.cpp:104:14
	vldr	d0, .LCPI5_0
	bl	pow
.Ltmp165:
	.loc	17 105 29 is_stmt 1     @ /root/Bela/projects/Physical_model/filters.cpp:105:29
	vcvt.f64.f32	d16, s18
	.loc	17 105 30 is_stmt 0     @ /root/Bela/projects/Physical_model/filters.cpp:105:30
	vmov.f64	d17, #5.000000e-01
	vmul.f64	d16, d16, d17
.Ltmp166:
	@DEBUG_VALUE: operator[]:__n <- 1
	.loc	17 105 26               @ /root/Bela/projects/Physical_model/filters.cpp:105:26
	vsub.f64	d18, d10, d16
.Ltmp167:
	@DEBUG_VALUE: operator[]:__n <- 0
	.loc	17 105 56               @ /root/Bela/projects/Physical_model/filters.cpp:105:56
	vldr	s2, [r4, #4]
	.loc	17 105 37               @ /root/Bela/projects/Physical_model/filters.cpp:105:37
	vcvt.f64.f32	d19, s16
	.loc	17 105 56               @ /root/Bela/projects/Physical_model/filters.cpp:105:56
	vcvt.f64.f32	d17, s2
	.loc	17 105 55               @ /root/Bela/projects/Physical_model/filters.cpp:105:55
	vmul.f64	d16, d17, d16
	.loc	17 105 36               @ /root/Bela/projects/Physical_model/filters.cpp:105:36
	vmul.f64	d17, d18, d19
	.loc	17 104 14 is_stmt 1     @ /root/Bela/projects/Physical_model/filters.cpp:104:14
	vcvt.f32.f64	s0, d0
.Ltmp168:
	@DEBUG_VALUE: DampenString:rho <- %S0
	.loc	17 105 46               @ /root/Bela/projects/Physical_model/filters.cpp:105:46
	vadd.f64	d16, d16, d17
	.loc	17 105 18 is_stmt 0     @ /root/Bela/projects/Physical_model/filters.cpp:105:18
	vcvt.f64.f32	d17, s0
	.loc	17 105 21               @ /root/Bela/projects/Physical_model/filters.cpp:105:21
	vmul.f64	d16, d16, d17
	.loc	17 105 18               @ /root/Bela/projects/Physical_model/filters.cpp:105:18
	vcvt.f32.f64	s0, d16
.Ltmp169:
	@DEBUG_VALUE: DampenString:DampOut <- %S0
	@DEBUG_VALUE: operator[]:__n <- 1
	@DEBUG_VALUE: operator[]:__n <- 0
	.loc	17 106 11 is_stmt 1     @ /root/Bela/projects/Physical_model/filters.cpp:106:11
	vstr	s16, [r4, #4]
	.loc	17 107 2                @ /root/Bela/projects/Physical_model/filters.cpp:107:2
	vpop	{d8, d9, d10}
.Ltmp170:
	pop	{r4, r10, r11, pc}
.Ltmp171:
	.p2align	3
@ BB#1:
.LCPI5_0:
	.long	3539053052              @ double 0.001
	.long	1062232653
.Lfunc_end5:
	.size	_ZN7filters12DampenStringEf, .Lfunc_end5-_ZN7filters12DampenStringEf
	.cfi_endproc
	.fnend

	.globl	_ZN7filters10TuneStringEff
	.p2align	2
	.type	_ZN7filters10TuneStringEff,%function
_ZN7filters10TuneStringEff:             @ @_ZN7filters10TuneStringEff
.Lfunc_begin6:
	.loc	17 113 0                @ /root/Bela/projects/Physical_model/filters.cpp:113:0
	.fnstart
	.cfi_startproc
@ BB#0:
	@DEBUG_VALUE: TuneString:this <- %R0
	@DEBUG_VALUE: TuneString:in <- %S0
	@DEBUG_VALUE: TuneString:fd <- %S1
	vmov.f32	s2, s1
.Ltmp172:
	@DEBUG_VALUE: TuneString:fd <- %S2
	.loc	8 781 32 prologue_end   @ /usr/bin/../lib/gcc/arm-linux-gnueabihf/6.3.0/../../../../include/c++/6.3.0/bits/stl_vector.h:781:32
	ldr	r1, [r0, #24]
.Ltmp173:
	.loc	17 115 29               @ /root/Bela/projects/Physical_model/filters.cpp:115:29
	vmov.f32	d16, #1.000000e+00
                                        @ kill: %S0<def> %S0<kill> %D0<def>
.Ltmp174:
	.loc	17 115 18 is_stmt 0     @ /root/Bela/projects/Physical_model/filters.cpp:115:18
	vmov.f32	d17, #-1.000000e+00
	.loc	17 114 11 is_stmt 1     @ /root/Bela/projects/Physical_model/filters.cpp:114:11
	vstr	s0, [r1]
.Ltmp175:
	@DEBUG_VALUE: operator[]:__n <- 0
	.loc	8 781 32                @ /usr/bin/../lib/gcc/arm-linux-gnueabihf/6.3.0/../../../../include/c++/6.3.0/bits/stl_vector.h:781:32
	ldr	r0, [r0, #36]
.Ltmp176:
	.loc	17 115 29               @ /root/Bela/projects/Physical_model/filters.cpp:115:29
	vadd.f32	d2, d1, d16
	.loc	17 115 18 is_stmt 0     @ /root/Bela/projects/Physical_model/filters.cpp:115:18
	vadd.f32	d1, d1, d17
.Ltmp177:
	.loc	17 115 23               @ /root/Bela/projects/Physical_model/filters.cpp:115:23
	vdiv.f32	s2, s2, s4
.Ltmp178:
	@DEBUG_VALUE: operator[]:__n <- 0
	@DEBUG_VALUE: TuneString:eta <- %S2
	.loc	17 116 23 is_stmt 1     @ /root/Bela/projects/Physical_model/filters.cpp:116:23
	vldr	s4, [r0]
.Ltmp179:
	@DEBUG_VALUE: operator[]:__n <- 0
	.loc	17 116 33 is_stmt 0     @ /root/Bela/projects/Physical_model/filters.cpp:116:33
	vadd.f32	d16, d2, d0
.Ltmp180:
	@DEBUG_VALUE: operator[]:__n <- 1
	.loc	17 116 50               @ /root/Bela/projects/Physical_model/filters.cpp:116:50
	vldr	s4, [r1, #4]
	.loc	17 117 11 is_stmt 1     @ /root/Bela/projects/Physical_model/filters.cpp:117:11
	vstr	s0, [r1, #4]
.Ltmp181:
	@DEBUG_VALUE: operator[]:__n <- 0
	@DEBUG_VALUE: TuneString:tunedOut <- %S2
	.loc	17 116 33               @ /root/Bela/projects/Physical_model/filters.cpp:116:33
	vmul.f32	d16, d16, d1
.Ltmp182:
	@DEBUG_VALUE: operator[]:__n <- 1
	@DEBUG_VALUE: operator[]:__n <- 0
	.loc	17 116 48 is_stmt 0     @ /root/Bela/projects/Physical_model/filters.cpp:116:48
	vsub.f32	d1, d16, d2
.Ltmp183:
	.loc	17 119 2 is_stmt 1      @ /root/Bela/projects/Physical_model/filters.cpp:119:2
	vmov.f32	s0, s2
	.loc	17 118 12               @ /root/Bela/projects/Physical_model/filters.cpp:118:12
	vstr	s2, [r0]
	.loc	17 119 2                @ /root/Bela/projects/Physical_model/filters.cpp:119:2
	bx	lr
.Ltmp184:
.Lfunc_end6:
	.size	_ZN7filters10TuneStringEff, .Lfunc_end6-_ZN7filters10TuneStringEff
	.cfi_endproc
	.fnend

	.globl	_ZN7filters12DynamicLevelEff
	.p2align	3
	.type	_ZN7filters12DynamicLevelEff,%function
_ZN7filters12DynamicLevelEff:           @ @_ZN7filters12DynamicLevelEff
.Lfunc_begin7:
	.loc	17 126 0                @ /root/Bela/projects/Physical_model/filters.cpp:126:0
	.fnstart
	.cfi_startproc
@ BB#0:
	@DEBUG_VALUE: DynamicLevel:this <- %R0
	@DEBUG_VALUE: DynamicLevel:in <- %S0
	@DEBUG_VALUE: DynamicLevel:l <- %S1
	.loc	8 781 32 prologue_end   @ /usr/bin/../lib/gcc/arm-linux-gnueabihf/6.3.0/../../../../include/c++/6.3.0/bits/stl_vector.h:781:32
	ldr	r1, [r0, #24]
	vmov.f32	s2, s1
.Ltmp185:
	@DEBUG_VALUE: DynamicLevel:l <- %S2
                                        @ kill: %S0<def> %S0<kill> %D0<def>
.Ltmp186:
	@DEBUG_VALUE: operator[]:__n <- 0
	.loc	17 128 35               @ /root/Bela/projects/Physical_model/filters.cpp:128:35
	vldr	d17, .LCPI7_0
	.loc	17 127 10               @ /root/Bela/projects/Physical_model/filters.cpp:127:10
	vstr	s0, [r1]
	.loc	17 128 41               @ /root/Bela/projects/Physical_model/filters.cpp:128:41
	vldr	s4, [r0, #112]
	.loc	17 128 37 is_stmt 0     @ /root/Bela/projects/Physical_model/filters.cpp:128:37
	vldr	s6, [r0, #116]
.Ltmp187:
	.loc	8 781 32 is_stmt 1      @ /usr/bin/../lib/gcc/arm-linux-gnueabihf/6.3.0/../../../../include/c++/6.3.0/bits/stl_vector.h:781:32
	ldr	r0, [r0, #36]
.Ltmp188:
	@DEBUG_VALUE: operator[]:__n <- 1
	@DEBUG_VALUE: operator[]:__n <- 0
	@DEBUG_VALUE: DynamicLevel:Lo <- 1.000000e+00
	.loc	17 128 40               @ /root/Bela/projects/Physical_model/filters.cpp:128:40
	vdiv.f32	s4, s6, s4
	.loc	17 128 36 is_stmt 0     @ /root/Bela/projects/Physical_model/filters.cpp:128:36
	vcvt.f64.f32	d16, s4
	.loc	17 128 35               @ /root/Bela/projects/Physical_model/filters.cpp:128:35
	vmul.f64	d16, d16, d17
	.loc	17 128 13               @ /root/Bela/projects/Physical_model/filters.cpp:128:13
	vcvt.f32.f64	s4, d16
.Ltmp189:
	@DEBUG_VALUE: DynamicLevel:Lw <- %S4
	.loc	17 129 21 is_stmt 1     @ /root/Bela/projects/Physical_model/filters.cpp:129:21
	vmov.f32	d16, #1.000000e+00
	.loc	17 132 65               @ /root/Bela/projects/Physical_model/filters.cpp:132:65
	vldr	s10, [r0]
	.loc	17 129 21               @ /root/Bela/projects/Physical_model/filters.cpp:129:21
	vadd.f32	d3, d2, d16
	.loc	17 130 19               @ /root/Bela/projects/Physical_model/filters.cpp:130:19
	vsub.f32	d4, d16, d2
	.loc	17 135 48               @ /root/Bela/projects/Physical_model/filters.cpp:135:48
	vsub.f32	d16, d16, d1
.Ltmp190:
	@DEBUG_VALUE: operator[]:__n <- 0
	.loc	17 129 18               @ /root/Bela/projects/Physical_model/filters.cpp:129:18
	vdiv.f32	s4, s4, s6
.Ltmp191:
	@DEBUG_VALUE: operator[]:__n <- 0
	@DEBUG_VALUE: DynamicLevel:Lgain <- %S4
	.loc	17 130 23               @ /root/Bela/projects/Physical_model/filters.cpp:130:23
	vdiv.f32	s8, s8, s6
.Ltmp192:
	@DEBUG_VALUE: DynamicLevel:Lpole2 <- %S8
	.loc	17 132 49               @ /root/Bela/projects/Physical_model/filters.cpp:132:49
	vldr	s6, [r1, #4]
	.loc	17 132 64 is_stmt 0     @ /root/Bela/projects/Physical_model/filters.cpp:132:64
	vmul.f32	d18, d4, d5
	.loc	17 132 42               @ /root/Bela/projects/Physical_model/filters.cpp:132:42
	vadd.f32	d17, d3, d0
	vmul.f32	d17, d2, d17
	.loc	17 132 57               @ /root/Bela/projects/Physical_model/filters.cpp:132:57
	vadd.f32	d0, d17, d18
.Ltmp193:
	@DEBUG_VALUE: DynamicLevel:DynamicLevelInput <- %S0
	@DEBUG_VALUE: operator[]:__n <- 0
	.loc	17 135 51 is_stmt 1     @ /root/Bela/projects/Physical_model/filters.cpp:135:51
	vmul.f32	d16, d0, d16
.Ltmp194:
	.loc	17 133 15               @ /root/Bela/projects/Physical_model/filters.cpp:133:15
	vstr	s0, [r0]
.Ltmp195:
	@DEBUG_VALUE: operator[]:__n <- 0
	.loc	17 134 16               @ /root/Bela/projects/Physical_model/filters.cpp:134:16
	ldr	r0, [r1]
	.loc	17 134 14 is_stmt 0     @ /root/Bela/projects/Physical_model/filters.cpp:134:14
	str	r0, [r1, #4]
.Ltmp196:
	@DEBUG_VALUE: DynamicLevel:out <- %S0
	@DEBUG_VALUE: DynamicLevel:DynamicLevelOutput <- %S0
	.loc	17 135 37 is_stmt 1     @ /root/Bela/projects/Physical_model/filters.cpp:135:37
	vmov	d17, r0, r0
	.loc	17 135 36 is_stmt 0     @ /root/Bela/projects/Physical_model/filters.cpp:135:36
	vmul.f32	d17, d17, d1
	.loc	17 135 45               @ /root/Bela/projects/Physical_model/filters.cpp:135:45
	vadd.f32	d0, d17, d16
.Ltmp197:
	@DEBUG_VALUE: operator[]:__n <- 1
	.loc	17 137 5 is_stmt 1      @ /root/Bela/projects/Physical_model/filters.cpp:137:5
                                        @ kill: %S0<def> %S0<kill> %D0<kill>
	bx	lr
.Ltmp198:
	.p2align	3
@ BB#1:
.LCPI7_0:
	.long	1413754136              @ double 3.1415926535897931
	.long	1074340347
.Lfunc_end7:
	.size	_ZN7filters12DynamicLevelEff, .Lfunc_end7-_ZN7filters12DynamicLevelEff
	.cfi_endproc
	.fnend

	.globl	_ZN7filters21lagrangeInterPolationEff
	.p2align	2
	.type	_ZN7filters21lagrangeInterPolationEff,%function
_ZN7filters21lagrangeInterPolationEff:  @ @_ZN7filters21lagrangeInterPolationEff
.Lfunc_begin8:
	.loc	17 143 0                @ /root/Bela/projects/Physical_model/filters.cpp:143:0
	.fnstart
	.cfi_startproc
@ BB#0:
	.save	{r4, lr}
	push	{r4, lr}
.Ltmp199:
	.cfi_def_cfa_offset 8
.Ltmp200:
	.cfi_offset lr, -4
.Ltmp201:
	.cfi_offset r4, -8
	@DEBUG_VALUE: lagrangeInterPolation:this <- %R0
	@DEBUG_VALUE: lagrangeInterPolation:in <- %S0
	@DEBUG_VALUE: lagrangeInterPolation:frac <- %S1
.Ltmp202:
	@DEBUG_VALUE: lagrangeInterPolation:fd <- %S1
	.loc	17 146 8 prologue_end   @ /root/Bela/projects/Physical_model/filters.cpp:146:8
	ldr	r3, [r0, #52]
.Ltmp203:
	@DEBUG_VALUE: operator[]:__n <- %R3
	.loc	17 169 16               @ /root/Bela/projects/Physical_model/filters.cpp:169:16
	movw	r12, #52429
	movt	r12, #52428
.Ltmp204:
	.loc	8 781 32                @ /usr/bin/../lib/gcc/arm-linux-gnueabihf/6.3.0/../../../../include/c++/6.3.0/bits/stl_vector.h:781:32
	ldr	lr, [r0, #24]
.Ltmp205:
	.loc	17 148 27               @ /root/Bela/projects/Physical_model/filters.cpp:148:27
	add	r2, r3, #1
	vmov.f32	s2, s1
.Ltmp206:
	@DEBUG_VALUE: lagrangeInterPolation:out <- 0.000000e+00
	@DEBUG_VALUE: lagrangeInterPolation:fd <- 0.000000e+00
	@DEBUG_VALUE: lagrangeInterPolation:fd <- %S2
	@DEBUG_VALUE: lagrangeInterPolation:frac <- %S2
	.loc	17 169 16               @ /root/Bela/projects/Physical_model/filters.cpp:169:16
	umull	r1, r4, r2, r12
.Ltmp207:
	.loc	8 781 41                @ /usr/bin/../lib/gcc/arm-linux-gnueabihf/6.3.0/../../../../include/c++/6.3.0/bits/stl_vector.h:781:41
	add	r1, lr, r3, lsl #2
.Ltmp208:
	.loc	17 146 20               @ /root/Bela/projects/Physical_model/filters.cpp:146:20
	vstr	s0, [r1]
	.loc	17 147 9                @ /root/Bela/projects/Physical_model/filters.cpp:147:9
	ldr	r1, [r0, #56]
.Ltmp209:
	.loc	17 169 16               @ /root/Bela/projects/Physical_model/filters.cpp:169:16
	lsr	r3, r4, #2
.Ltmp210:
	.loc	17 147 9                @ /root/Bela/projects/Physical_model/filters.cpp:147:9
	add	r1, r1, #1
.Ltmp211:
	.loc	17 169 16               @ /root/Bela/projects/Physical_model/filters.cpp:169:16
	add	r3, r3, r3, lsl #2
.Ltmp212:
	.loc	17 149 6                @ /root/Bela/projects/Physical_model/filters.cpp:149:6
	cmp	r1, #4
.Ltmp213:
	.loc	17 169 16               @ /root/Bela/projects/Physical_model/filters.cpp:169:16
	sub	r3, r2, r3
.Ltmp214:
	@DEBUG_VALUE: operator[]:__n <- %R3
	.loc	17 148 13               @ /root/Bela/projects/Physical_model/filters.cpp:148:13
	str	r3, [r0, #52]
	.loc	17 147 9                @ /root/Bela/projects/Physical_model/filters.cpp:147:9
	str	r1, [r0, #56]
	bne	.LBB8_2
.Ltmp215:
@ BB#1:
	@DEBUG_VALUE: operator[]:__n <- %R3
	@DEBUG_VALUE: lagrangeInterPolation:frac <- %S2
	@DEBUG_VALUE: lagrangeInterPolation:fd <- %S2
	@DEBUG_VALUE: lagrangeInterPolation:in <- %S0
	@DEBUG_VALUE: lagrangeInterPolation:this <- %R0
	.loc	17 152 11               @ /root/Bela/projects/Physical_model/filters.cpp:152:11
	vmov.f32	d2, #1.000000e+00
.Ltmp216:
	.loc	17 151 12               @ /root/Bela/projects/Physical_model/filters.cpp:151:12
	mov	r1, #3
	.loc	17 152 7                @ /root/Bela/projects/Physical_model/filters.cpp:152:7
	vmov.i32	d0, #0x0
.Ltmp217:
	.loc	17 151 12               @ /root/Bela/projects/Physical_model/filters.cpp:151:12
	str	r1, [r0, #56]
.Ltmp218:
	@DEBUG_VALUE: fdm3 <- undef
	.loc	17 154 15               @ /root/Bela/projects/Physical_model/filters.cpp:154:15
	vadd.f32	d3, d1, d2
.Ltmp219:
	@DEBUG_VALUE: lagrangeInterPolation:fd <- %S6
	.loc	8 781 41                @ /usr/bin/../lib/gcc/arm-linux-gnueabihf/6.3.0/../../../../include/c++/6.3.0/bits/stl_vector.h:781:41
	add	r0, lr, r3, lsl #2
.Ltmp220:
	@DEBUG_VALUE: fdm2 <- undef
	.loc	17 152 7                @ /root/Bela/projects/Physical_model/filters.cpp:152:7
	vcmpe.f32	s2, s4
	vmrs	APSR_nzcv, fpscr
	.loc	17 161 19               @ /root/Bela/projects/Physical_model/filters.cpp:161:19
	vmov.f32	d16, #-2.000000e+00
	.loc	17 163 19               @ /root/Bela/projects/Physical_model/filters.cpp:163:19
	vmov.f32	d17, #-4.000000e+00
	.loc	17 162 19               @ /root/Bela/projects/Physical_model/filters.cpp:162:19
	vmov.f32	d19, #-3.000000e+00
	.loc	17 160 19               @ /root/Bela/projects/Physical_model/filters.cpp:160:19
	vmov.f32	d20, #-1.000000e+00
	.loc	17 166 32               @ /root/Bela/projects/Physical_model/filters.cpp:166:32
	vmov.f32	d21, #2.500000e-01
	.loc	17 152 7                @ /root/Bela/projects/Physical_model/filters.cpp:152:7
	vmovlt.f32	s0, s6
	.loc	17 156 7                @ /root/Bela/projects/Physical_model/filters.cpp:156:7
	vmovgt.f32	s0, s2
	.loc	17 164 34               @ /root/Bela/projects/Physical_model/filters.cpp:164:34
	vldr	s2, .LCPI8_0
.Ltmp221:
	@DEBUG_VALUE: fdm1 <- undef
	.loc	17 161 19               @ /root/Bela/projects/Physical_model/filters.cpp:161:19
	vadd.f32	d18, d0, d16
	.loc	17 163 19               @ /root/Bela/projects/Physical_model/filters.cpp:163:19
	vadd.f32	d16, d0, d17
	.loc	17 162 19               @ /root/Bela/projects/Physical_model/filters.cpp:162:19
	vadd.f32	d17, d0, d19
	.loc	17 160 19               @ /root/Bela/projects/Physical_model/filters.cpp:160:19
	vadd.f32	d19, d0, d20
	.loc	17 168 27               @ /root/Bela/projects/Physical_model/filters.cpp:168:27
	vmul.f32	d22, d17, d1
	.loc	17 166 17               @ /root/Bela/projects/Physical_model/filters.cpp:166:17
	vmul.f32	d20, d19, d0
	.loc	17 164 34               @ /root/Bela/projects/Physical_model/filters.cpp:164:34
	vmul.f32	d19, d19, d1
	.loc	17 169 10               @ /root/Bela/projects/Physical_model/filters.cpp:169:10
	vldr	s2, [r0]
	.loc	17 169 51 is_stmt 0     @ /root/Bela/projects/Physical_model/filters.cpp:169:51
	add	r0, r3, #1
	.loc	17 169 54               @ /root/Bela/projects/Physical_model/filters.cpp:169:54
	umull	r1, r2, r0, r12
	.loc	17 166 32 is_stmt 1     @ /root/Bela/projects/Physical_model/filters.cpp:166:32
	vmul.f32	d21, d20, d21
	.loc	17 167 25               @ /root/Bela/projects/Physical_model/filters.cpp:167:25
	vmul.f32	d20, d20, d18
.Ltmp222:
	@DEBUG_VALUE: h0 <- undef
	.loc	17 169 28               @ /root/Bela/projects/Physical_model/filters.cpp:169:28
	vmul.f32	d23, d19, d1
	.loc	17 165 36               @ /root/Bela/projects/Physical_model/filters.cpp:165:36
	vldr	s2, .LCPI8_1
	.loc	17 169 54               @ /root/Bela/projects/Physical_model/filters.cpp:169:54
	lsr	r1, r2, #2
	.loc	17 168 32               @ /root/Bela/projects/Physical_model/filters.cpp:168:32
	vmul.f32	d19, d22, d20
	.loc	17 169 54               @ /root/Bela/projects/Physical_model/filters.cpp:169:54
	add	r1, r1, r1, lsl #2
	.loc	17 165 36               @ /root/Bela/projects/Physical_model/filters.cpp:165:36
	vmul.f32	d22, d0, d1
.Ltmp223:
	@DEBUG_VALUE: h1 <- undef
	.loc	17 169 54               @ /root/Bela/projects/Physical_model/filters.cpp:169:54
	sub	r0, r0, r1
.Ltmp224:
	@DEBUG_VALUE: operator[]:__n <- %R0
	.loc	17 167 36               @ /root/Bela/projects/Physical_model/filters.cpp:167:36
	vmul.f32	d20, d20, d1
.Ltmp225:
	@DEBUG_VALUE: h2 <- undef
	.loc	8 781 41                @ /usr/bin/../lib/gcc/arm-linux-gnueabihf/6.3.0/../../../../include/c++/6.3.0/bits/stl_vector.h:781:41
	add	r0, lr, r0, lsl #2
.Ltmp226:
	.loc	17 169 33               @ /root/Bela/projects/Physical_model/filters.cpp:169:33
	vldr	s0, [r0]
	.loc	17 169 79 is_stmt 0     @ /root/Bela/projects/Physical_model/filters.cpp:169:79
	add	r0, r3, #2
	.loc	17 169 82               @ /root/Bela/projects/Physical_model/filters.cpp:169:82
	umull	r1, r2, r0, r12
	.loc	17 169 57               @ /root/Bela/projects/Physical_model/filters.cpp:169:57
	vmul.f32	d22, d22, d0
	vadd.f32	d22, d22, d23
	.loc	17 169 82               @ /root/Bela/projects/Physical_model/filters.cpp:169:82
	lsr	r1, r2, #2
	add	r1, r1, r1, lsl #2
	sub	r0, r0, r1
.Ltmp227:
	@DEBUG_VALUE: operator[]:__n <- %R0
	vmul.f32	d18, d22, d18
.Ltmp228:
	.loc	8 781 41 is_stmt 1      @ /usr/bin/../lib/gcc/arm-linux-gnueabihf/6.3.0/../../../../include/c++/6.3.0/bits/stl_vector.h:781:41
	add	r0, lr, r0, lsl #2
.Ltmp229:
	.loc	17 169 61               @ /root/Bela/projects/Physical_model/filters.cpp:169:61
	vldr	s0, [r0]
	.loc	17 169 135 is_stmt 0    @ /root/Bela/projects/Physical_model/filters.cpp:169:135
	add	r0, r3, #4
	.loc	17 169 138              @ /root/Bela/projects/Physical_model/filters.cpp:169:138
	umull	r1, r2, r0, r12
	.loc	17 169 85               @ /root/Bela/projects/Physical_model/filters.cpp:169:85
	vmul.f32	d21, d21, d0
	.loc	17 169 107              @ /root/Bela/projects/Physical_model/filters.cpp:169:107
	add	r1, r3, #3
	.loc	17 169 110              @ /root/Bela/projects/Physical_model/filters.cpp:169:110
	umull	r3, r4, r1, r12
.Ltmp230:
	vadd.f32	d18, d18, d21
	.loc	17 169 138              @ /root/Bela/projects/Physical_model/filters.cpp:169:138
	lsr	r2, r2, #2
	add	r2, r2, r2, lsl #2
	vmul.f32	d17, d18, d17
	sub	r0, r0, r2
.Ltmp231:
	@DEBUG_VALUE: h3 <- undef
	@DEBUG_VALUE: operator[]:__n <- %R0
	.loc	17 169 110              @ /root/Bela/projects/Physical_model/filters.cpp:169:110
	lsr	r3, r4, #2
	add	r3, r3, r3, lsl #2
.Ltmp232:
	.loc	8 781 41 is_stmt 1      @ /usr/bin/../lib/gcc/arm-linux-gnueabihf/6.3.0/../../../../include/c++/6.3.0/bits/stl_vector.h:781:41
	add	r0, lr, r0, lsl #2
.Ltmp233:
	.loc	17 169 110              @ /root/Bela/projects/Physical_model/filters.cpp:169:110
	sub	r1, r1, r3
.Ltmp234:
	@DEBUG_VALUE: operator[]:__n <- %R1
	.loc	17 169 117 is_stmt 0    @ /root/Bela/projects/Physical_model/filters.cpp:169:117
	vldr	s0, [r0]
.Ltmp235:
	.loc	8 781 41 is_stmt 1      @ /usr/bin/../lib/gcc/arm-linux-gnueabihf/6.3.0/../../../../include/c++/6.3.0/bits/stl_vector.h:781:41
	add	r1, lr, r1, lsl #2
.Ltmp236:
	.loc	17 169 141              @ /root/Bela/projects/Physical_model/filters.cpp:169:141
	vmul.f32	d18, d19, d0
.Ltmp237:
	@DEBUG_VALUE: fdm4 <- undef
	.loc	17 169 89 is_stmt 0     @ /root/Bela/projects/Physical_model/filters.cpp:169:89
	vldr	s2, [r1]
	.loc	17 169 113              @ /root/Bela/projects/Physical_model/filters.cpp:169:113
	vmul.f32	d20, d20, d1
	vadd.f32	d17, d17, d20
.Ltmp238:
	@DEBUG_VALUE: h4 <- undef
	vmul.f32	d16, d17, d16
	.loc	17 169 116              @ /root/Bela/projects/Physical_model/filters.cpp:169:116
	vadd.f32	d0, d16, d18
.Ltmp239:
	@DEBUG_VALUE: lagrangeInterPolation:out <- %S0
	.loc	17 171 2 is_stmt 1      @ /root/Bela/projects/Physical_model/filters.cpp:171:2
                                        @ kill: %S0<def> %S0<kill> %D0<kill>
.Ltmp240:
	pop	{r4, pc}
.Ltmp241:
.LBB8_2:
	@DEBUG_VALUE: operator[]:__n <- %R3
	@DEBUG_VALUE: lagrangeInterPolation:frac <- %S2
	@DEBUG_VALUE: lagrangeInterPolation:fd <- %S2
	@DEBUG_VALUE: lagrangeInterPolation:in <- %S0
	@DEBUG_VALUE: lagrangeInterPolation:this <- %R0
	vmov.i32	d0, #0x0
.Ltmp242:
                                        @ kill: %S0<def> %S0<kill> %D0<kill>
	pop	{r4, pc}
.Ltmp243:
	.p2align	2
@ BB#3:
.LCPI8_0:
	.long	1026206379              @ float 0.0416666679
.LCPI8_1:
	.long	3190467243              @ float -0.166666672
.Lfunc_end8:
	.size	_ZN7filters21lagrangeInterPolationEff, .Lfunc_end8-_ZN7filters21lagrangeInterPolationEff
	.cfi_endproc
	.fnend

	.globl	_ZN7filters26calculateDampingPhaseDelayEv
	.p2align	3
	.type	_ZN7filters26calculateDampingPhaseDelayEv,%function
_ZN7filters26calculateDampingPhaseDelayEv: @ @_ZN7filters26calculateDampingPhaseDelayEv
.Lfunc_begin9:
	.loc	17 178 0                @ /root/Bela/projects/Physical_model/filters.cpp:178:0
	.fnstart
	.cfi_startproc
@ BB#0:
	.save	{r4, r10, r11, lr}
	push	{r4, r10, r11, lr}
.Ltmp244:
	.cfi_def_cfa_offset 16
.Ltmp245:
	.cfi_offset lr, -4
.Ltmp246:
	.cfi_offset r11, -8
.Ltmp247:
	.cfi_offset r10, -12
.Ltmp248:
	.cfi_offset r4, -16
	.setfp	r11, sp, #8
	add	r11, sp, #8
.Ltmp249:
	.cfi_def_cfa r11, 8
	.vsave	{d8, d9, d10}
	vpush	{d8, d9, d10}
.Ltmp250:
	.cfi_offset d10, -24
.Ltmp251:
	.cfi_offset d9, -32
.Ltmp252:
	.cfi_offset d8, -40
	.pad	#16
	sub	sp, sp, #16
	@DEBUG_VALUE: calculateDampingPhaseDelay:this <- %R0
	mov	r4, r0
.Ltmp253:
	@DEBUG_VALUE: calculateDampingPhaseDelay:this <- %R4
	.loc	17 179 36 prologue_end  @ /root/Bela/projects/Physical_model/filters.cpp:179:36
	vldr	d17, .LCPI9_0
	.loc	17 179 37 is_stmt 0     @ /root/Bela/projects/Physical_model/filters.cpp:179:37
	vldr	s0, [r4, #116]
	add	r0, sp, #8
	.loc	17 179 41               @ /root/Bela/projects/Physical_model/filters.cpp:179:41
	vldr	s2, [r4, #112]
	mov	r1, sp
	.loc	17 179 37               @ /root/Bela/projects/Physical_model/filters.cpp:179:37
	vcvt.f64.f32	d16, s0
	.loc	17 179 36               @ /root/Bela/projects/Physical_model/filters.cpp:179:36
	vmul.f64	d16, d16, d17
	.loc	17 179 41               @ /root/Bela/projects/Physical_model/filters.cpp:179:41
	vcvt.f64.f32	d17, s2
	.loc	17 179 40               @ /root/Bela/projects/Physical_model/filters.cpp:179:40
	vdiv.f64	d16, d16, d17
	.loc	17 179 12               @ /root/Bela/projects/Physical_model/filters.cpp:179:12
	vcvt.f32.f64	s0, d16
.Ltmp254:
	@DEBUG_VALUE: calculateDampingPhaseDelay:w <- %S0
	.loc	17 180 26 is_stmt 1     @ /root/Bela/projects/Physical_model/filters.cpp:180:26
	vldr	s4, [r4, #132]
	.loc	17 180 18 is_stmt 0     @ /root/Bela/projects/Physical_model/filters.cpp:180:18
	vldr	s18, [r4, #120]
	.loc	17 180 25               @ /root/Bela/projects/Physical_model/filters.cpp:180:25
	vmul.f32	d8, d0, d2
	.loc	17 180 24               @ /root/Bela/projects/Physical_model/filters.cpp:180:24
	vcvt.f64.f32	d0, s16
.Ltmp255:
	.loc	17 180 20 discriminator 1 @ /root/Bela/projects/Physical_model/filters.cpp:180:20
	bl	sincos
	.loc	17 180 15               @ /root/Bela/projects/Physical_model/filters.cpp:180:15
	vcvt.f64.f32	d16, s18
	.loc	17 180 20 discriminator 1 @ /root/Bela/projects/Physical_model/filters.cpp:180:20
	vldr	d17, [sp]
	.loc	17 180 33               @ /root/Bela/projects/Physical_model/filters.cpp:180:33
	vmov.f32	d10, #1.000000e+00
	.loc	17 180 20 discriminator 1 @ /root/Bela/projects/Physical_model/filters.cpp:180:20
	vldr	d18, [sp, #8]
	.loc	17 180 38               @ /root/Bela/projects/Physical_model/filters.cpp:180:38
	vmul.f64	d17, d17, d16
	.loc	17 180 33               @ /root/Bela/projects/Physical_model/filters.cpp:180:33
	vsub.f32	d0, d9, d10
	.loc	17 180 19               @ /root/Bela/projects/Physical_model/filters.cpp:180:19
	vmul.f64	d16, d18, d16
	.loc	17 180 31               @ /root/Bela/projects/Physical_model/filters.cpp:180:31
	vcvt.f64.f32	d19, s0
	.loc	17 180 36               @ /root/Bela/projects/Physical_model/filters.cpp:180:36
	vsub.f64	d17, d19, d17
	.loc	17 180 29               @ /root/Bela/projects/Physical_model/filters.cpp:180:29
	vdiv.f64	d16, d16, d17
	.loc	17 180 14               @ /root/Bela/projects/Physical_model/filters.cpp:180:14
	vcvt.f32.f64	s0, d16
.Ltmp256:
	@DEBUG_VALUE: calculateDampingPhaseDelay:arg <- %S0
	.loc	17 181 17 is_stmt 1 discriminator 1 @ /root/Bela/projects/Physical_model/filters.cpp:181:17
	bl	atanf
.Ltmp257:
	@DEBUG_VALUE: calculateDampingPhaseDelay:taninv <- %S0
	.loc	17 182 20               @ /root/Bela/projects/Physical_model/filters.cpp:182:20
	vdiv.f32	s2, s20, s16
	.loc	17 182 28 is_stmt 0     @ /root/Bela/projects/Physical_model/filters.cpp:182:28
	vnmul.f32	s0, s0, s2
.Ltmp258:
	.loc	17 182 12               @ /root/Bela/projects/Physical_model/filters.cpp:182:12
	vstr	s0, [r4, #84]
	.loc	17 183 2 is_stmt 1      @ /root/Bela/projects/Physical_model/filters.cpp:183:2
	sub	sp, r11, #32
	vpop	{d8, d9, d10}
	pop	{r4, r10, r11, pc}
.Ltmp259:
	.p2align	3
@ BB#1:
.LCPI9_0:
	.long	1413754136              @ double 6.2831853071795862
	.long	1075388923
.Lfunc_end9:
	.size	_ZN7filters26calculateDampingPhaseDelayEv, .Lfunc_end9-_ZN7filters26calculateDampingPhaseDelayEv
	.cfi_endproc
	.fnend

	.section	.text._ZNSt6vectorIfSaIfEE14_M_fill_insertEN9__gnu_cxx17__normal_iteratorIPfS1_EEjRKf,"axG",%progbits,_ZNSt6vectorIfSaIfEE14_M_fill_insertEN9__gnu_cxx17__normal_iteratorIPfS1_EEjRKf,comdat
	.weak	_ZNSt6vectorIfSaIfEE14_M_fill_insertEN9__gnu_cxx17__normal_iteratorIPfS1_EEjRKf
	.p2align	2
	.type	_ZNSt6vectorIfSaIfEE14_M_fill_insertEN9__gnu_cxx17__normal_iteratorIPfS1_EEjRKf,%function
_ZNSt6vectorIfSaIfEE14_M_fill_insertEN9__gnu_cxx17__normal_iteratorIPfS1_EEjRKf: @ @_ZNSt6vectorIfSaIfEE14_M_fill_insertEN9__gnu_cxx17__normal_iteratorIPfS1_EEjRKf
.Lfunc_begin10:
	.file	19 "/usr/bin/../lib/gcc/arm-linux-gnueabihf/6.3.0/../../../../include/c++/6.3.0/bits" "vector.tcc"
	.loc	19 451 0                @ /usr/bin/../lib/gcc/arm-linux-gnueabihf/6.3.0/../../../../include/c++/6.3.0/bits/vector.tcc:451:0
	.fnstart
	.cfi_startproc
@ BB#0:
	.save	{r4, r5, r6, r7, r8, r9, r10, r11, lr}
	push	{r4, r5, r6, r7, r8, r9, r10, r11, lr}
.Ltmp260:
	.cfi_def_cfa_offset 36
.Ltmp261:
	.cfi_offset lr, -4
.Ltmp262:
	.cfi_offset r11, -8
.Ltmp263:
	.cfi_offset r10, -12
.Ltmp264:
	.cfi_offset r9, -16
.Ltmp265:
	.cfi_offset r8, -20
.Ltmp266:
	.cfi_offset r7, -24
.Ltmp267:
	.cfi_offset r6, -28
.Ltmp268:
	.cfi_offset r5, -32
.Ltmp269:
	.cfi_offset r4, -36
	.setfp	r11, sp, #28
	add	r11, sp, #28
.Ltmp270:
	.cfi_def_cfa r11, 8
	.pad	#4
	sub	sp, sp, #4
	@DEBUG_VALUE: _M_fill_insert:this <- %R0
	@DEBUG_VALUE: _M_fill_insert:__n <- %R2
	@DEBUG_VALUE: _M_fill_insert:__x <- %R3
	mov	r10, r2
.Ltmp271:
	@DEBUG_VALUE: _M_fill_insert:__n <- %R10
	mov	r8, r3
.Ltmp272:
	@DEBUG_VALUE: _M_fill_insert:__x <- %R8
	mov	r4, r1
	mov	r9, r0
.Ltmp273:
	@DEBUG_VALUE: _M_fill_insert:this <- %R9
	.loc	19 452 11 prologue_end  @ /usr/bin/../lib/gcc/arm-linux-gnueabihf/6.3.0/../../../../include/c++/6.3.0/bits/vector.tcc:452:11
	cmp	r10, #0
	beq	.LBB10_29
.Ltmp274:
@ BB#1:
	@DEBUG_VALUE: _M_fill_insert:this <- %R9
	@DEBUG_VALUE: _M_fill_insert:__x <- %R8
	@DEBUG_VALUE: _M_fill_insert:__n <- %R10
	.loc	19 455 20               @ /usr/bin/../lib/gcc/arm-linux-gnueabihf/6.3.0/../../../../include/c++/6.3.0/bits/vector.tcc:455:20
	ldr	r7, [r9, #4]
	.loc	19 454 32               @ /usr/bin/../lib/gcc/arm-linux-gnueabihf/6.3.0/../../../../include/c++/6.3.0/bits/vector.tcc:454:32
	ldr	r0, [r9, #8]
	.loc	19 455 4                @ /usr/bin/../lib/gcc/arm-linux-gnueabihf/6.3.0/../../../../include/c++/6.3.0/bits/vector.tcc:455:4
	sub	r0, r0, r7
	asr	r0, r0, #2
.Ltmp275:
	.loc	19 454 8                @ /usr/bin/../lib/gcc/arm-linux-gnueabihf/6.3.0/../../../../include/c++/6.3.0/bits/vector.tcc:454:8
	cmp	r0, r10
	bhs	.LBB10_15
.Ltmp276:
@ BB#2:
	@DEBUG_VALUE: _M_fill_insert:this <- %R9
	@DEBUG_VALUE: _M_fill_insert:__x <- %R8
	@DEBUG_VALUE: _M_fill_insert:__n <- %R10
	@DEBUG_VALUE: size:this <- %R9
	.loc	8 656 66                @ /usr/bin/../lib/gcc/arm-linux-gnueabihf/6.3.0/../../../../include/c++/6.3.0/bits/stl_vector.h:656:66
	ldr	r5, [r9]
.Ltmp277:
	.loc	8 1422 17               @ /usr/bin/../lib/gcc/arm-linux-gnueabihf/6.3.0/../../../../include/c++/6.3.0/bits/stl_vector.h:1422:17
	mvn	r6, #-1073741824
.Ltmp278:
	.loc	8 656 50                @ /usr/bin/../lib/gcc/arm-linux-gnueabihf/6.3.0/../../../../include/c++/6.3.0/bits/stl_vector.h:656:50
	sub	r0, r7, r5
.Ltmp279:
	.loc	8 1422 17               @ /usr/bin/../lib/gcc/arm-linux-gnueabihf/6.3.0/../../../../include/c++/6.3.0/bits/stl_vector.h:1422:17
	sub	r1, r6, r0, asr #2
.Ltmp280:
	@DEBUG_VALUE: _M_check_len:__n <- %R10
	.loc	8 1422 6 is_stmt 0      @ /usr/bin/../lib/gcc/arm-linux-gnueabihf/6.3.0/../../../../include/c++/6.3.0/bits/stl_vector.h:1422:6
	cmp	r1, r10
	blo	.LBB10_30
.Ltmp281:
@ BB#3:                                 @ %_ZNKSt6vectorIfSaIfEE12_M_check_lenEjPKc.exit
	@DEBUG_VALUE: _M_check_len:__n <- %R10
	@DEBUG_VALUE: size:this <- %R9
	@DEBUG_VALUE: _M_fill_insert:this <- %R9
	@DEBUG_VALUE: _M_fill_insert:__x <- %R8
	@DEBUG_VALUE: _M_fill_insert:__n <- %R10
	.loc	8 656 50 is_stmt 1      @ /usr/bin/../lib/gcc/arm-linux-gnueabihf/6.3.0/../../../../include/c++/6.3.0/bits/stl_vector.h:656:50
	asr	r0, r0, #2
.Ltmp282:
	.loc	8 1425 35               @ /usr/bin/../lib/gcc/arm-linux-gnueabihf/6.3.0/../../../../include/c++/6.3.0/bits/stl_vector.h:1425:35
	cmp	r0, r10
	mov	r1, r0
	mov	r7, #0
	movlo	r1, r10
	add	r0, r1, r0
	.loc	8 1426 25               @ /usr/bin/../lib/gcc/arm-linux-gnueabihf/6.3.0/../../../../include/c++/6.3.0/bits/stl_vector.h:1426:25
	cmp	r7, r0, lsr #30
	mov	r2, r0
	mvnne	r2, #-1073741824
	cmp	r0, r1
	movhs	r6, r2
.Ltmp283:
	@DEBUG_VALUE: __len <- %R6
	@DEBUG_VALUE: _M_allocate:__n <- %R6
	@DEBUG_VALUE: allocate:__n <- %R6
	@DEBUG_VALUE: allocate:__n <- %R6
	.loc	8 170 9                 @ /usr/bin/../lib/gcc/arm-linux-gnueabihf/6.3.0/../../../../include/c++/6.3.0/bits/stl_vector.h:170:9
	cmp	r6, #0
.Ltmp284:
	@DEBUG_VALUE: _M_check_len:__len <- %R0
	beq	.LBB10_6
.Ltmp285:
@ BB#4:
	@DEBUG_VALUE: _M_check_len:__len <- %R0
	@DEBUG_VALUE: allocate:__n <- %R6
	@DEBUG_VALUE: allocate:__n <- %R6
	@DEBUG_VALUE: _M_allocate:__n <- %R6
	@DEBUG_VALUE: __len <- %R6
	@DEBUG_VALUE: _M_check_len:__n <- %R10
	@DEBUG_VALUE: size:this <- %R9
	@DEBUG_VALUE: _M_fill_insert:this <- %R9
	@DEBUG_VALUE: _M_fill_insert:__x <- %R8
	@DEBUG_VALUE: _M_fill_insert:__n <- %R10
	.loc	4 101 6                 @ /usr/bin/../lib/gcc/arm-linux-gnueabihf/6.3.0/../../../../include/c++/6.3.0/ext/new_allocator.h:101:6
	cmp	r6, #1073741824
	bhs	.LBB10_31
.Ltmp286:
@ BB#5:                                 @ %_ZNSt16allocator_traitsISaIfEE8allocateERS0_j.exit.i
	@DEBUG_VALUE: _M_check_len:__len <- %R0
	@DEBUG_VALUE: allocate:__n <- %R6
	@DEBUG_VALUE: allocate:__n <- %R6
	@DEBUG_VALUE: _M_allocate:__n <- %R6
	@DEBUG_VALUE: __len <- %R6
	@DEBUG_VALUE: _M_check_len:__n <- %R10
	@DEBUG_VALUE: size:this <- %R9
	@DEBUG_VALUE: _M_fill_insert:this <- %R9
	@DEBUG_VALUE: _M_fill_insert:__x <- %R8
	@DEBUG_VALUE: _M_fill_insert:__n <- %R10
	.loc	4 104 46                @ /usr/bin/../lib/gcc/arm-linux-gnueabihf/6.3.0/../../../../include/c++/6.3.0/ext/new_allocator.h:104:46
	lsl	r0, r6, #2
.Ltmp287:
	.loc	4 104 27 is_stmt 0      @ /usr/bin/../lib/gcc/arm-linux-gnueabihf/6.3.0/../../../../include/c++/6.3.0/ext/new_allocator.h:104:27
	bl	_Znwj
	mov	r7, r0
.Ltmp288:
.LBB10_6:                               @ %_ZNSt12_Vector_baseIfSaIfEE11_M_allocateEj.exit
	@DEBUG_VALUE: allocate:__n <- %R6
	@DEBUG_VALUE: allocate:__n <- %R6
	@DEBUG_VALUE: _M_allocate:__n <- %R6
	@DEBUG_VALUE: __len <- %R6
	@DEBUG_VALUE: _M_check_len:__n <- %R10
	@DEBUG_VALUE: size:this <- %R9
	@DEBUG_VALUE: _M_fill_insert:this <- %R9
	@DEBUG_VALUE: _M_fill_insert:__x <- %R8
	@DEBUG_VALUE: _M_fill_insert:__n <- %R10
	str	r6, [sp]                @ 4-byte Spill
.Ltmp289:
	.loc	9 962 27 is_stmt 1      @ /usr/bin/../lib/gcc/arm-linux-gnueabihf/6.3.0/../../../../include/c++/6.3.0/bits/stl_iterator.h:962:27
	sub	r0, r4, r5
.Ltmp290:
	.file	20 "/usr/bin/../lib/gcc/arm-linux-gnueabihf/6.3.0/../../../../include/c++/6.3.0/bits" "stl_algobase.h"
	.loc	20 751 25               @ /usr/bin/../lib/gcc/arm-linux-gnueabihf/6.3.0/../../../../include/c++/6.3.0/bits/stl_algobase.h:751:25
	ldr	r1, [r8]
.Ltmp291:
	.loc	20 789 18 discriminator 1 @ /usr/bin/../lib/gcc/arm-linux-gnueabihf/6.3.0/../../../../include/c++/6.3.0/bits/stl_algobase.h:789:18
	mov	r2, r10
.Ltmp292:
	.loc	9 962 27                @ /usr/bin/../lib/gcc/arm-linux-gnueabihf/6.3.0/../../../../include/c++/6.3.0/bits/stl_iterator.h:962:27
	asr	r0, r0, #2
.Ltmp293:
	@DEBUG_VALUE: __fill_n_a<float *, unsigned int, float>:__value <- %R8
	@DEBUG_VALUE: uninitialized_fill_n<float *, unsigned int, float>:__assignable <- 1
	@DEBUG_VALUE: __elems_before <- %R0
.LBB10_7:                               @ %.lr.ph.i.i.i.i.i
                                        @ =>This Inner Loop Header: Depth=1
	.loc	20 754 11               @ /usr/bin/../lib/gcc/arm-linux-gnueabihf/6.3.0/../../../../include/c++/6.3.0/bits/stl_algobase.h:754:11
	str	r1, [r7, r0, lsl #2]
	.loc	20 753 13               @ /usr/bin/../lib/gcc/arm-linux-gnueabihf/6.3.0/../../../../include/c++/6.3.0/bits/stl_algobase.h:753:13
	add	r0, r0, #1
	.loc	20 753 18 is_stmt 0 discriminator 1 @ /usr/bin/../lib/gcc/arm-linux-gnueabihf/6.3.0/../../../../include/c++/6.3.0/bits/stl_algobase.h:753:18
	subs	r2, r2, #1
.Ltmp294:
	@DEBUG_VALUE: __new_start <- %R7
	@DEBUG_VALUE: __niter <- %R2
	.loc	20 752 7 is_stmt 1 discriminator 1 @ /usr/bin/../lib/gcc/arm-linux-gnueabihf/6.3.0/../../../../include/c++/6.3.0/bits/stl_algobase.h:752:7
	bne	.LBB10_7
.Ltmp295:
@ BB#8:                                 @ %_ZSt24__uninitialized_fill_n_aIPfjffET_S1_T0_RKT1_RSaIT2_E.exit
	@DEBUG_VALUE: __niter <- %R2
	@DEBUG_VALUE: __new_start <- %R7
	.loc	19 527 36               @ /usr/bin/../lib/gcc/arm-linux-gnueabihf/6.3.0/../../../../include/c++/6.3.0/bits/vector.tcc:527:36
	ldr	r5, [r9]
.Ltmp296:
	@DEBUG_VALUE: _M_deallocate:__p <- %R5
	@DEBUG_VALUE: size:this <- %R9
	@DEBUG_VALUE: deallocate:__p <- %R5
	@DEBUG_VALUE: deallocate:__p <- %R5
	mov	r8, #0
.Ltmp297:
	.loc	20 366 34               @ /usr/bin/../lib/gcc/arm-linux-gnueabihf/6.3.0/../../../../include/c++/6.3.0/bits/stl_algobase.h:366:34
	sub	r2, r4, r5
.Ltmp298:
	asr	r6, r2, #2
.Ltmp299:
	@DEBUG_VALUE: __copy_m<float>:_Num <- %R6
	.loc	20 367 8                @ /usr/bin/../lib/gcc/arm-linux-gnueabihf/6.3.0/../../../../include/c++/6.3.0/bits/stl_algobase.h:367:8
	cmp	r8, r2, asr #2
.Ltmp300:
	@DEBUG_VALUE: __copy_move_a<true, float *, float *>:__simple <- 1
	@DEBUG_VALUE: uninitialized_copy<std::move_iterator<float *>, float *>:__assignable <- 1
	@DEBUG_VALUE: move_iterator:__i <- %R5
	@DEBUG_VALUE: __make_move_if_noexcept_iterator<float, std::move_iterator<float *> >:__i <- %R5
	@DEBUG_VALUE: __uninitialized_move_if_noexcept_a<float *, float *, std::allocator<float> >:__first <- %R5
	beq	.LBB10_10
.Ltmp301:
@ BB#9:
	@DEBUG_VALUE: __uninitialized_move_if_noexcept_a<float *, float *, std::allocator<float> >:__first <- %R5
	@DEBUG_VALUE: __make_move_if_noexcept_iterator<float, std::move_iterator<float *> >:__i <- %R5
	@DEBUG_VALUE: move_iterator:__i <- %R5
	@DEBUG_VALUE: __copy_m<float>:_Num <- %R6
	@DEBUG_VALUE: deallocate:__p <- %R5
	@DEBUG_VALUE: deallocate:__p <- %R5
	@DEBUG_VALUE: size:this <- %R9
	@DEBUG_VALUE: _M_deallocate:__p <- %R5
	@DEBUG_VALUE: __new_start <- %R7
	.loc	20 368 6                @ /usr/bin/../lib/gcc/arm-linux-gnueabihf/6.3.0/../../../../include/c++/6.3.0/bits/stl_algobase.h:368:6
	mov	r0, r7
	mov	r1, r5
	bl	memmove
.Ltmp302:
.LBB10_10:
	@DEBUG_VALUE: __uninitialized_move_if_noexcept_a<float *, float *, std::allocator<float> >:__first <- %R5
	@DEBUG_VALUE: __make_move_if_noexcept_iterator<float, std::move_iterator<float *> >:__i <- %R5
	@DEBUG_VALUE: move_iterator:__i <- %R5
	@DEBUG_VALUE: __copy_m<float>:_Num <- %R6
	@DEBUG_VALUE: deallocate:__p <- %R5
	@DEBUG_VALUE: deallocate:__p <- %R5
	@DEBUG_VALUE: size:this <- %R9
	@DEBUG_VALUE: _M_deallocate:__p <- %R5
	@DEBUG_VALUE: __new_start <- %R7
	.loc	19 510 41               @ /usr/bin/../lib/gcc/arm-linux-gnueabihf/6.3.0/../../../../include/c++/6.3.0/bits/vector.tcc:510:41
	ldr	r1, [r9, #4]
.Ltmp303:
	.loc	20 369 20               @ /usr/bin/../lib/gcc/arm-linux-gnueabihf/6.3.0/../../../../include/c++/6.3.0/bits/stl_algobase.h:369:20
	add	r0, r7, r6, lsl #2
.Ltmp304:
	@DEBUG_VALUE: __new_finish <- %R0
	.loc	19 506 18               @ /usr/bin/../lib/gcc/arm-linux-gnueabihf/6.3.0/../../../../include/c++/6.3.0/bits/vector.tcc:506:18
	add	r6, r0, r10, lsl #2
.Ltmp305:
	@DEBUG_VALUE: __uninitialized_move_if_noexcept_a<float *, float *, std::allocator<float> >:__result <- %R6
	@DEBUG_VALUE: __uninitialized_copy_a<std::move_iterator<float *>, float *, float>:__result <- %R6
	@DEBUG_VALUE: uninitialized_copy<std::move_iterator<float *>, float *>:__result <- %R6
	@DEBUG_VALUE: __uninit_copy<std::move_iterator<float *>, float *>:__result <- %R6
	@DEBUG_VALUE: copy<std::move_iterator<float *>, float *>:__result <- %R6
	@DEBUG_VALUE: __copy_move_a2<true, float *, float *>:__result <- %R6
	@DEBUG_VALUE: __copy_move_a<true, float *, float *>:__result <- %R6
	@DEBUG_VALUE: __copy_m<float>:__result <- %R6
	@DEBUG_VALUE: __new_finish <- %R6
	@DEBUG_VALUE: __niter <- %R10
	.loc	20 366 34               @ /usr/bin/../lib/gcc/arm-linux-gnueabihf/6.3.0/../../../../include/c++/6.3.0/bits/stl_algobase.h:366:34
	sub	r2, r1, r4
	asr	r10, r2, #2
.Ltmp306:
	@DEBUG_VALUE: __copy_m<float>:_Num <- %R10
	.loc	20 367 8                @ /usr/bin/../lib/gcc/arm-linux-gnueabihf/6.3.0/../../../../include/c++/6.3.0/bits/stl_algobase.h:367:8
	cmp	r8, r2, asr #2
.Ltmp307:
	@DEBUG_VALUE: __copy_move_a<true, float *, float *>:__simple <- 1
	@DEBUG_VALUE: uninitialized_copy<std::move_iterator<float *>, float *>:__assignable <- 1
	beq	.LBB10_12
.Ltmp308:
@ BB#11:
	@DEBUG_VALUE: __copy_m<float>:_Num <- %R10
	@DEBUG_VALUE: __new_finish <- %R6
	@DEBUG_VALUE: __copy_m<float>:__result <- %R6
	@DEBUG_VALUE: __copy_move_a<true, float *, float *>:__result <- %R6
	@DEBUG_VALUE: __copy_move_a2<true, float *, float *>:__result <- %R6
	@DEBUG_VALUE: copy<std::move_iterator<float *>, float *>:__result <- %R6
	@DEBUG_VALUE: __uninit_copy<std::move_iterator<float *>, float *>:__result <- %R6
	@DEBUG_VALUE: uninitialized_copy<std::move_iterator<float *>, float *>:__result <- %R6
	@DEBUG_VALUE: __uninitialized_copy_a<std::move_iterator<float *>, float *, float>:__result <- %R6
	@DEBUG_VALUE: __uninitialized_move_if_noexcept_a<float *, float *, std::allocator<float> >:__result <- %R6
	@DEBUG_VALUE: __uninitialized_move_if_noexcept_a<float *, float *, std::allocator<float> >:__first <- %R5
	@DEBUG_VALUE: __make_move_if_noexcept_iterator<float, std::move_iterator<float *> >:__i <- %R5
	@DEBUG_VALUE: move_iterator:__i <- %R5
	@DEBUG_VALUE: deallocate:__p <- %R5
	@DEBUG_VALUE: deallocate:__p <- %R5
	@DEBUG_VALUE: size:this <- %R9
	@DEBUG_VALUE: _M_deallocate:__p <- %R5
	@DEBUG_VALUE: __new_start <- %R7
	.loc	20 368 6                @ /usr/bin/../lib/gcc/arm-linux-gnueabihf/6.3.0/../../../../include/c++/6.3.0/bits/stl_algobase.h:368:6
	mov	r0, r6
	mov	r1, r4
	bl	memmove
.Ltmp309:
.LBB10_12:
	@DEBUG_VALUE: __copy_m<float>:_Num <- %R10
	@DEBUG_VALUE: __new_finish <- %R6
	@DEBUG_VALUE: __copy_m<float>:__result <- %R6
	@DEBUG_VALUE: __copy_move_a<true, float *, float *>:__result <- %R6
	@DEBUG_VALUE: __copy_move_a2<true, float *, float *>:__result <- %R6
	@DEBUG_VALUE: copy<std::move_iterator<float *>, float *>:__result <- %R6
	@DEBUG_VALUE: __uninit_copy<std::move_iterator<float *>, float *>:__result <- %R6
	@DEBUG_VALUE: uninitialized_copy<std::move_iterator<float *>, float *>:__result <- %R6
	@DEBUG_VALUE: __uninitialized_copy_a<std::move_iterator<float *>, float *, float>:__result <- %R6
	@DEBUG_VALUE: __uninitialized_move_if_noexcept_a<float *, float *, std::allocator<float> >:__result <- %R6
	@DEBUG_VALUE: __uninitialized_move_if_noexcept_a<float *, float *, std::allocator<float> >:__first <- %R5
	@DEBUG_VALUE: __make_move_if_noexcept_iterator<float, std::move_iterator<float *> >:__i <- %R5
	@DEBUG_VALUE: move_iterator:__i <- %R5
	@DEBUG_VALUE: deallocate:__p <- %R5
	@DEBUG_VALUE: deallocate:__p <- %R5
	@DEBUG_VALUE: size:this <- %R9
	@DEBUG_VALUE: _M_deallocate:__p <- %R5
	@DEBUG_VALUE: __new_start <- %R7
	.loc	20 369 20               @ /usr/bin/../lib/gcc/arm-linux-gnueabihf/6.3.0/../../../../include/c++/6.3.0/bits/stl_algobase.h:369:20
	add	r4, r6, r10, lsl #2
.Ltmp310:
	@DEBUG_VALUE: __new_finish <- %R4
	.loc	8 177 6                 @ /usr/bin/../lib/gcc/arm-linux-gnueabihf/6.3.0/../../../../include/c++/6.3.0/bits/stl_vector.h:177:6
	cmp	r5, #0
	beq	.LBB10_14
.Ltmp311:
@ BB#13:
	@DEBUG_VALUE: __new_finish <- %R4
	@DEBUG_VALUE: __copy_m<float>:_Num <- %R10
	@DEBUG_VALUE: __copy_m<float>:__result <- %R6
	@DEBUG_VALUE: __copy_move_a<true, float *, float *>:__result <- %R6
	@DEBUG_VALUE: __copy_move_a2<true, float *, float *>:__result <- %R6
	@DEBUG_VALUE: copy<std::move_iterator<float *>, float *>:__result <- %R6
	@DEBUG_VALUE: __uninit_copy<std::move_iterator<float *>, float *>:__result <- %R6
	@DEBUG_VALUE: uninitialized_copy<std::move_iterator<float *>, float *>:__result <- %R6
	@DEBUG_VALUE: __uninitialized_copy_a<std::move_iterator<float *>, float *, float>:__result <- %R6
	@DEBUG_VALUE: __uninitialized_move_if_noexcept_a<float *, float *, std::allocator<float> >:__result <- %R6
	@DEBUG_VALUE: __uninitialized_move_if_noexcept_a<float *, float *, std::allocator<float> >:__first <- %R5
	@DEBUG_VALUE: __make_move_if_noexcept_iterator<float, std::move_iterator<float *> >:__i <- %R5
	@DEBUG_VALUE: move_iterator:__i <- %R5
	@DEBUG_VALUE: deallocate:__p <- %R5
	@DEBUG_VALUE: deallocate:__p <- %R5
	@DEBUG_VALUE: size:this <- %R9
	@DEBUG_VALUE: _M_deallocate:__p <- %R5
	@DEBUG_VALUE: __new_start <- %R7
	.loc	4 110 9                 @ /usr/bin/../lib/gcc/arm-linux-gnueabihf/6.3.0/../../../../include/c++/6.3.0/ext/new_allocator.h:110:9
	mov	r0, r5
	bl	_ZdlPv
.Ltmp312:
.LBB10_14:                              @ %_ZNSt12_Vector_baseIfSaIfEE13_M_deallocateEPfj.exit57
	@DEBUG_VALUE: __new_finish <- %R4
	@DEBUG_VALUE: __copy_m<float>:_Num <- %R10
	@DEBUG_VALUE: __copy_m<float>:__result <- %R6
	@DEBUG_VALUE: __copy_move_a<true, float *, float *>:__result <- %R6
	@DEBUG_VALUE: __copy_move_a2<true, float *, float *>:__result <- %R6
	@DEBUG_VALUE: copy<std::move_iterator<float *>, float *>:__result <- %R6
	@DEBUG_VALUE: __uninit_copy<std::move_iterator<float *>, float *>:__result <- %R6
	@DEBUG_VALUE: uninitialized_copy<std::move_iterator<float *>, float *>:__result <- %R6
	@DEBUG_VALUE: __uninitialized_copy_a<std::move_iterator<float *>, float *, float>:__result <- %R6
	@DEBUG_VALUE: __uninitialized_move_if_noexcept_a<float *, float *, std::allocator<float> >:__result <- %R6
	@DEBUG_VALUE: __uninitialized_move_if_noexcept_a<float *, float *, std::allocator<float> >:__first <- %R5
	@DEBUG_VALUE: __make_move_if_noexcept_iterator<float, std::move_iterator<float *> >:__i <- %R5
	@DEBUG_VALUE: move_iterator:__i <- %R5
	@DEBUG_VALUE: deallocate:__p <- %R5
	@DEBUG_VALUE: deallocate:__p <- %R5
	@DEBUG_VALUE: size:this <- %R9
	@DEBUG_VALUE: _M_deallocate:__p <- %R5
	@DEBUG_VALUE: __new_start <- %R7
	.loc	19 532 54               @ /usr/bin/../lib/gcc/arm-linux-gnueabihf/6.3.0/../../../../include/c++/6.3.0/bits/vector.tcc:532:54
	ldr	r0, [sp]                @ 4-byte Reload
	.loc	19 530 31               @ /usr/bin/../lib/gcc/arm-linux-gnueabihf/6.3.0/../../../../include/c++/6.3.0/bits/vector.tcc:530:31
	str	r7, [r9]
	.loc	19 531 32               @ /usr/bin/../lib/gcc/arm-linux-gnueabihf/6.3.0/../../../../include/c++/6.3.0/bits/vector.tcc:531:32
	str	r4, [r9, #4]
	.loc	19 532 54               @ /usr/bin/../lib/gcc/arm-linux-gnueabihf/6.3.0/../../../../include/c++/6.3.0/bits/vector.tcc:532:54
	add	r0, r7, r0, lsl #2
	.loc	19 532 40 is_stmt 0     @ /usr/bin/../lib/gcc/arm-linux-gnueabihf/6.3.0/../../../../include/c++/6.3.0/bits/vector.tcc:532:40
	str	r0, [r9, #8]
	b	.LBB10_29
.Ltmp313:
.LBB10_15:
	@DEBUG_VALUE: _M_fill_insert:this <- %R9
	@DEBUG_VALUE: _M_fill_insert:__x <- %R8
	@DEBUG_VALUE: _M_fill_insert:__n <- %R10
	.loc	9 962 27 is_stmt 1      @ /usr/bin/../lib/gcc/arm-linux-gnueabihf/6.3.0/../../../../include/c++/6.3.0/bits/stl_iterator.h:962:27
	sub	r2, r7, r4
.Ltmp314:
	.loc	19 457 30               @ /usr/bin/../lib/gcc/arm-linux-gnueabihf/6.3.0/../../../../include/c++/6.3.0/bits/vector.tcc:457:30
	ldr	r6, [r8]
.Ltmp315:
	.loc	9 962 27                @ /usr/bin/../lib/gcc/arm-linux-gnueabihf/6.3.0/../../../../include/c++/6.3.0/bits/stl_iterator.h:962:27
	asr	r5, r2, #2
.Ltmp316:
	@DEBUG_VALUE: __elems_after <- %R5
	.loc	19 460 12               @ /usr/bin/../lib/gcc/arm-linux-gnueabihf/6.3.0/../../../../include/c++/6.3.0/bits/vector.tcc:460:12
	cmp	r5, r10
	bls	.LBB10_21
.Ltmp317:
@ BB#16:
	@DEBUG_VALUE: __elems_after <- %R5
	@DEBUG_VALUE: _M_fill_insert:this <- %R9
	@DEBUG_VALUE: _M_fill_insert:__x <- %R8
	@DEBUG_VALUE: _M_fill_insert:__n <- %R10
	.loc	19 462 57               @ /usr/bin/../lib/gcc/arm-linux-gnueabihf/6.3.0/../../../../include/c++/6.3.0/bits/vector.tcc:462:57
	sub	r8, r7, r10, lsl #2
.Ltmp318:
	@DEBUG_VALUE: __copy_move_a<true, float *, float *>:__simple <- 1
	@DEBUG_VALUE: uninitialized_copy<std::move_iterator<float *>, float *>:__assignable <- 1
	@DEBUG_VALUE: make_move_iterator<float *>:__i <- %R8
	@DEBUG_VALUE: __uninitialized_move_a<float *, float *, std::allocator<float> >:__first <- %R8
	@DEBUG_VALUE: move_backward<float *, float *>:__last <- %R8
	@DEBUG_VALUE: __copy_move_backward_a2<true, float *, float *>:__last <- %R8
	@DEBUG_VALUE: __copy_move_backward_a<true, float *, float *>:__last <- %R8
	@DEBUG_VALUE: __copy_move_b<float>:__last <- %R8
	mov	r1, #0
	lsl	r5, r10, #2
.Ltmp319:
	.loc	19 466 29               @ /usr/bin/../lib/gcc/arm-linux-gnueabihf/6.3.0/../../../../include/c++/6.3.0/bits/vector.tcc:466:29
	mov	r0, r7
.Ltmp320:
	.loc	20 367 8                @ /usr/bin/../lib/gcc/arm-linux-gnueabihf/6.3.0/../../../../include/c++/6.3.0/bits/stl_algobase.h:367:8
	cmp	r1, r10, lsl #2
.Ltmp321:
	@DEBUG_VALUE: move_iterator:__i <- %R8
	beq	.LBB10_18
.Ltmp322:
@ BB#17:
	@DEBUG_VALUE: move_iterator:__i <- %R8
	@DEBUG_VALUE: __copy_move_b<float>:__last <- %R8
	@DEBUG_VALUE: __copy_move_backward_a<true, float *, float *>:__last <- %R8
	@DEBUG_VALUE: __copy_move_backward_a2<true, float *, float *>:__last <- %R8
	@DEBUG_VALUE: move_backward<float *, float *>:__last <- %R8
	@DEBUG_VALUE: __uninitialized_move_a<float *, float *, std::allocator<float> >:__first <- %R8
	@DEBUG_VALUE: make_move_iterator<float *>:__i <- %R8
	@DEBUG_VALUE: _M_fill_insert:this <- %R9
	@DEBUG_VALUE: _M_fill_insert:__n <- %R10
	.loc	20 368 6                @ /usr/bin/../lib/gcc/arm-linux-gnueabihf/6.3.0/../../../../include/c++/6.3.0/bits/stl_algobase.h:368:6
	mov	r0, r7
	mov	r1, r8
	mov	r2, r5
	bl	memmove
.Ltmp323:
	.loc	19 466 29               @ /usr/bin/../lib/gcc/arm-linux-gnueabihf/6.3.0/../../../../include/c++/6.3.0/bits/vector.tcc:466:29
	ldr	r0, [r9, #4]
	mov	r1, #0
.Ltmp324:
.LBB10_18:                              @ %_ZSt22__uninitialized_move_aIPfS0_SaIfEET0_T_S3_S2_RT1_.exit
	@DEBUG_VALUE: move_iterator:__i <- %R8
	@DEBUG_VALUE: __copy_move_b<float>:__last <- %R8
	@DEBUG_VALUE: __copy_move_backward_a<true, float *, float *>:__last <- %R8
	@DEBUG_VALUE: __copy_move_backward_a2<true, float *, float *>:__last <- %R8
	@DEBUG_VALUE: move_backward<float *, float *>:__last <- %R8
	@DEBUG_VALUE: __uninitialized_move_a<float *, float *, std::allocator<float> >:__first <- %R8
	@DEBUG_VALUE: make_move_iterator<float *>:__i <- %R8
	@DEBUG_VALUE: _M_fill_insert:this <- %R9
	@DEBUG_VALUE: _M_fill_insert:__n <- %R10
	.loc	20 568 34               @ /usr/bin/../lib/gcc/arm-linux-gnueabihf/6.3.0/../../../../include/c++/6.3.0/bits/stl_algobase.h:568:34
	sub	r2, r8, r4
.Ltmp325:
	.loc	19 466 29               @ /usr/bin/../lib/gcc/arm-linux-gnueabihf/6.3.0/../../../../include/c++/6.3.0/bits/vector.tcc:466:29
	add	r0, r0, r10, lsl #2
.Ltmp326:
	@DEBUG_VALUE: __copy_move_backward_a<true, float *, float *>:__simple <- 1
	str	r0, [r9, #4]
.Ltmp327:
	.loc	20 569 8                @ /usr/bin/../lib/gcc/arm-linux-gnueabihf/6.3.0/../../../../include/c++/6.3.0/bits/stl_algobase.h:569:8
	cmp	r1, r2, asr #2
	beq	.LBB10_20
.Ltmp328:
@ BB#19:
	@DEBUG_VALUE: move_iterator:__i <- %R8
	@DEBUG_VALUE: __copy_move_b<float>:__last <- %R8
	@DEBUG_VALUE: __copy_move_backward_a<true, float *, float *>:__last <- %R8
	@DEBUG_VALUE: __copy_move_backward_a2<true, float *, float *>:__last <- %R8
	@DEBUG_VALUE: move_backward<float *, float *>:__last <- %R8
	@DEBUG_VALUE: __uninitialized_move_a<float *, float *, std::allocator<float> >:__first <- %R8
	@DEBUG_VALUE: make_move_iterator<float *>:__i <- %R8
	@DEBUG_VALUE: _M_fill_insert:this <- %R9
	@DEBUG_VALUE: _M_fill_insert:__n <- %R10
	.loc	20 568 34               @ /usr/bin/../lib/gcc/arm-linux-gnueabihf/6.3.0/../../../../include/c++/6.3.0/bits/stl_algobase.h:568:34
	asr	r0, r2, #2
.Ltmp329:
	@DEBUG_VALUE: __copy_move_b<float>:_Num <- %R0
	.loc	20 570 6                @ /usr/bin/../lib/gcc/arm-linux-gnueabihf/6.3.0/../../../../include/c++/6.3.0/bits/stl_algobase.h:570:6
	mov	r1, r4
.Ltmp330:
	.loc	20 571 20               @ /usr/bin/../lib/gcc/arm-linux-gnueabihf/6.3.0/../../../../include/c++/6.3.0/bits/stl_algobase.h:571:20
	sub	r0, r7, r0, lsl #2
.Ltmp331:
	.loc	20 570 6                @ /usr/bin/../lib/gcc/arm-linux-gnueabihf/6.3.0/../../../../include/c++/6.3.0/bits/stl_algobase.h:570:6
	bl	memmove
.Ltmp332:
.LBB10_20:                              @ %.lr.ph.i.i68
                                        @ =>This Inner Loop Header: Depth=1
	.loc	20 696 11               @ /usr/bin/../lib/gcc/arm-linux-gnueabihf/6.3.0/../../../../include/c++/6.3.0/bits/stl_algobase.h:696:11
	str	r6, [r4], #4
.Ltmp333:
	@DEBUG_VALUE: __fill_a<float *, float>:__first <- %R4
	.loc	20 695 22 discriminator 1 @ /usr/bin/../lib/gcc/arm-linux-gnueabihf/6.3.0/../../../../include/c++/6.3.0/bits/stl_algobase.h:695:22
	subs	r5, r5, #4
	bne	.LBB10_20
	b	.LBB10_29
.Ltmp334:
.LBB10_21:
	@DEBUG_VALUE: __elems_after <- %R5
	@DEBUG_VALUE: _M_fill_insert:this <- %R9
	@DEBUG_VALUE: _M_fill_insert:__x <- %R8
	@DEBUG_VALUE: _M_fill_insert:__n <- %R10
	.loc	19 476 13               @ /usr/bin/../lib/gcc/arm-linux-gnueabihf/6.3.0/../../../../include/c++/6.3.0/bits/vector.tcc:476:13
	subs	r1, r10, r5
.Ltmp335:
	@DEBUG_VALUE: __niter <- %R1
	@DEBUG_VALUE: __fill_n_a<float *, unsigned int, float>:__n <- %R1
	@DEBUG_VALUE: fill_n<float *, unsigned int, float>:__n <- %R1
	@DEBUG_VALUE: __uninit_fill_n<float *, unsigned int, float>:__n <- %R1
	@DEBUG_VALUE: uninitialized_fill_n<float *, unsigned int, float>:__assignable <- 1
	@DEBUG_VALUE: uninitialized_fill_n<float *, unsigned int, float>:__n <- %R1
	@DEBUG_VALUE: __uninitialized_fill_n_a<float *, unsigned int, float, float>:__n <- %R1
	.loc	20 789 18 discriminator 1 @ /usr/bin/../lib/gcc/arm-linux-gnueabihf/6.3.0/../../../../include/c++/6.3.0/bits/stl_algobase.h:789:18
	mov	r0, r7
	beq	.LBB10_25
.Ltmp336:
@ BB#22:                                @ %.lr.ph.i.i.i.i.i64.preheader
	@DEBUG_VALUE: __uninitialized_fill_n_a<float *, unsigned int, float, float>:__n <- %R1
	@DEBUG_VALUE: uninitialized_fill_n<float *, unsigned int, float>:__n <- %R1
	@DEBUG_VALUE: __uninit_fill_n<float *, unsigned int, float>:__n <- %R1
	@DEBUG_VALUE: fill_n<float *, unsigned int, float>:__n <- %R1
	@DEBUG_VALUE: __fill_n_a<float *, unsigned int, float>:__n <- %R1
	@DEBUG_VALUE: __niter <- %R1
	@DEBUG_VALUE: __elems_after <- %R5
	@DEBUG_VALUE: _M_fill_insert:this <- %R9
	@DEBUG_VALUE: _M_fill_insert:__x <- %R8
	@DEBUG_VALUE: _M_fill_insert:__n <- %R10
	.loc	20 754 11               @ /usr/bin/../lib/gcc/arm-linux-gnueabihf/6.3.0/../../../../include/c++/6.3.0/bits/stl_algobase.h:754:11
	sub	r0, r5, r10
.Ltmp337:
	.loc	20 789 18 discriminator 1 @ /usr/bin/../lib/gcc/arm-linux-gnueabihf/6.3.0/../../../../include/c++/6.3.0/bits/stl_algobase.h:789:18
	mov	r3, r7
.Ltmp338:
.LBB10_23:                              @ %.lr.ph.i.i.i.i.i64
                                        @ =>This Inner Loop Header: Depth=1
	.loc	20 754 11               @ /usr/bin/../lib/gcc/arm-linux-gnueabihf/6.3.0/../../../../include/c++/6.3.0/bits/stl_algobase.h:754:11
	str	r6, [r3], #4
.Ltmp339:
	@DEBUG_VALUE: __fill_n_a<float *, unsigned int, float>:__first <- %R3
	.loc	20 753 13               @ /usr/bin/../lib/gcc/arm-linux-gnueabihf/6.3.0/../../../../include/c++/6.3.0/bits/stl_algobase.h:753:13
	adds	r0, r0, #1
.Ltmp340:
	.loc	20 752 7 discriminator 1 @ /usr/bin/../lib/gcc/arm-linux-gnueabihf/6.3.0/../../../../include/c++/6.3.0/bits/stl_algobase.h:752:7
	bne	.LBB10_23
.Ltmp341:
@ BB#24:                                @ %._crit_edge.loopexit.i.i.i.i.i61
	@DEBUG_VALUE: __fill_n_a<float *, unsigned int, float>:__first <- %R3
	.loc	20 754 11               @ /usr/bin/../lib/gcc/arm-linux-gnueabihf/6.3.0/../../../../include/c++/6.3.0/bits/stl_algobase.h:754:11
	add	r0, r7, r1, lsl #2
.Ltmp342:
.LBB10_25:                              @ %_ZSt24__uninitialized_fill_n_aIPfjffET_S1_T0_RKT1_RSaIT2_E.exit66
	@DEBUG_VALUE: __uninitialized_move_a<float *, float *, std::allocator<float> >:__result <- %R0
	@DEBUG_VALUE: uninitialized_copy<std::move_iterator<float *>, float *>:__assignable <- 1
	@DEBUG_VALUE: __copy_move_a<true, float *, float *>:__simple <- 1
	.loc	19 474 29               @ /usr/bin/../lib/gcc/arm-linux-gnueabihf/6.3.0/../../../../include/c++/6.3.0/bits/vector.tcc:474:29
	str	r0, [r9, #4]
.Ltmp343:
	.loc	20 367 8                @ /usr/bin/../lib/gcc/arm-linux-gnueabihf/6.3.0/../../../../include/c++/6.3.0/bits/stl_algobase.h:367:8
	cmp	r2, #0
	beq	.LBB10_27
.Ltmp344:
@ BB#26:
	@DEBUG_VALUE: __uninitialized_move_a<float *, float *, std::allocator<float> >:__result <- %R0
	.loc	20 368 6                @ /usr/bin/../lib/gcc/arm-linux-gnueabihf/6.3.0/../../../../include/c++/6.3.0/bits/stl_algobase.h:368:6
	mov	r1, r4
	bl	memmove
.Ltmp345:
	.loc	19 482 29               @ /usr/bin/../lib/gcc/arm-linux-gnueabihf/6.3.0/../../../../include/c++/6.3.0/bits/vector.tcc:482:29
	ldr	r0, [r9, #4]
.LBB10_27:                              @ %_ZSt22__uninitialized_move_aIPfS0_SaIfEET0_T_S3_S2_RT1_.exit59
	add	r0, r0, r5, lsl #2
	str	r0, [r9, #4]
.Ltmp346:
	.loc	20 695 7 discriminator 1 @ /usr/bin/../lib/gcc/arm-linux-gnueabihf/6.3.0/../../../../include/c++/6.3.0/bits/stl_algobase.h:695:7
	cmp	r4, r7
	beq	.LBB10_29
.LBB10_28:                              @ %.lr.ph.i.i
                                        @ =>This Inner Loop Header: Depth=1
	.loc	20 696 11               @ /usr/bin/../lib/gcc/arm-linux-gnueabihf/6.3.0/../../../../include/c++/6.3.0/bits/stl_algobase.h:696:11
	str	r6, [r4], #4
.Ltmp347:
	@DEBUG_VALUE: __fill_a<float *, float>:__first <- %R4
	.loc	20 695 7 discriminator 1 @ /usr/bin/../lib/gcc/arm-linux-gnueabihf/6.3.0/../../../../include/c++/6.3.0/bits/stl_algobase.h:695:7
	cmp	r7, r4
	bne	.LBB10_28
.Ltmp348:
.LBB10_29:                              @ %_ZSt4fillIPffEvT_S1_RKT0_.exit69
	.loc	19 535 5 discriminator 2 @ /usr/bin/../lib/gcc/arm-linux-gnueabihf/6.3.0/../../../../include/c++/6.3.0/bits/vector.tcc:535:5
	sub	sp, r11, #28
	pop	{r4, r5, r6, r7, r8, r9, r10, r11, pc}
.LBB10_30:
.Ltmp349:
	@DEBUG_VALUE: _M_check_len:__n <- %R10
	@DEBUG_VALUE: size:this <- %R9
	@DEBUG_VALUE: _M_fill_insert:this <- %R9
	@DEBUG_VALUE: _M_fill_insert:__x <- %R8
	@DEBUG_VALUE: _M_fill_insert:__n <- %R10
	.loc	8 1423 4                @ /usr/bin/../lib/gcc/arm-linux-gnueabihf/6.3.0/../../../../include/c++/6.3.0/bits/stl_vector.h:1423:4
	movw	r0, :lower16:.L.str
	movt	r0, :upper16:.L.str
.Ltmp350:
	@DEBUG_VALUE: _M_check_len:__s <- %R0
	mov	lr, pc
	b	_ZSt20__throw_length_errorPKc
.Ltmp351:
.LBB10_31:
	@DEBUG_VALUE: _M_check_len:__len <- %R0
	@DEBUG_VALUE: allocate:__n <- %R6
	@DEBUG_VALUE: allocate:__n <- %R6
	@DEBUG_VALUE: _M_allocate:__n <- %R6
	@DEBUG_VALUE: __len <- %R6
	@DEBUG_VALUE: _M_check_len:__n <- %R10
	@DEBUG_VALUE: size:this <- %R9
	@DEBUG_VALUE: _M_fill_insert:this <- %R9
	@DEBUG_VALUE: _M_fill_insert:__x <- %R8
	@DEBUG_VALUE: _M_fill_insert:__n <- %R10
	.loc	4 102 4                 @ /usr/bin/../lib/gcc/arm-linux-gnueabihf/6.3.0/../../../../include/c++/6.3.0/ext/new_allocator.h:102:4
	mov	lr, pc
	b	_ZSt17__throw_bad_allocv
.Ltmp352:
.Lfunc_end10:
	.size	_ZNSt6vectorIfSaIfEE14_M_fill_insertEN9__gnu_cxx17__normal_iteratorIPfS1_EEjRKf, .Lfunc_end10-_ZNSt6vectorIfSaIfEE14_M_fill_insertEN9__gnu_cxx17__normal_iteratorIPfS1_EEjRKf
	.cfi_endproc
	.file	21 "/usr/bin/../lib/gcc/arm-linux-gnueabihf/6.3.0/../../../../include/c++/6.3.0/ext" "type_traits.h"
	.file	22 "/usr/bin/../lib/gcc/arm-linux-gnueabihf/6.3.0/../../../../include/c++/6.3.0/bits" "stl_uninitialized.h"
	.fnend

	.type	.L.str,%object          @ @.str
	.section	.rodata.str1.1,"aMS",%progbits,1
.L.str:
	.asciz	"vector::_M_fill_insert"
	.size	.L.str, 23

	.section	".note.GNU-stack","",%progbits
	.eabi_attribute	30, 2	@ Tag_ABI_optimization_goals